SF:/home/runner/work/Mcp-Plus-Plus/Mcp-Plus-Plus/tests-rs/src/validators/base_mcp.rs
FN:58,_RNvMNtNtCs4N6kI5JLQmX_14mcp_validators10validators8base_mcpNtB2_16ValidationResult11add_warning
FN:44,_RNvMNtNtCs4N6kI5JLQmX_14mcp_validators10validators8base_mcpNtB2_16ValidationResult3new
FN:53,_RNvMNtNtCs4N6kI5JLQmX_14mcp_validators10validators8base_mcpNtB2_16ValidationResult9add_error
FN:255,_RNvMs0_NtNtCs4N6kI5JLQmX_14mcp_validators10validators8base_mcpNtB5_12MCPValidator10is_request
FN:266,_RNvMs0_NtNtCs4N6kI5JLQmX_14mcp_validators10validators8base_mcpNtB5_12MCPValidator11is_response
FN:272,_RNvMs0_NtNtCs4N6kI5JLQmX_14mcp_validators10validators8base_mcpNtB5_12MCPValidator15is_notification
FN:119,_RNvMs0_NtNtCs4N6kI5JLQmX_14mcp_validators10validators8base_mcpNtB5_12MCPValidator16validate_request
FN:173,_RNvMs0_NtNtCs4N6kI5JLQmX_14mcp_validators10validators8base_mcpNtB5_12MCPValidator17validate_response
FN:200,_RNvMs0_NtNtCs4N6kI5JLQmX_14mcp_validators10validators8base_mcpNtB5_12MCPValidator21validate_notification
FN:228,_RNvMs0_NtNtCs4N6kI5JLQmX_14mcp_validators10validators8base_mcpNtB5_12MCPValidator25validate_tool_call_params
FN:219,_RNvMs0_NtNtCs4N6kI5JLQmX_14mcp_validators10validators8base_mcpNtB5_12MCPValidator26validate_initialize_params
FN:246,_RNvMs0_NtNtCs4N6kI5JLQmX_14mcp_validators10validators8base_mcpNtB5_12MCPValidator26validate_prompt_get_params
FN:237,_RNvMs0_NtNtCs4N6kI5JLQmX_14mcp_validators10validators8base_mcpNtB5_12MCPValidator29validate_resource_read_params
FN:79,_RNvMs0_NtNtCs4N6kI5JLQmX_14mcp_validators10validators8base_mcpNtB5_12MCPValidator3new
FN:72,_RNvXs_NtNtCs4N6kI5JLQmX_14mcp_validators10validators8base_mcpNtB4_12MCPValidatorNtNtCslH02haMvknO_4core7default7Default7default
FN:232,_RNCNvMs0_NtNtCs4N6kI5JLQmX_14mcp_validators10validators8base_mcpNtB7_12MCPValidator25validate_tool_call_params0Bb_
FN:223,_RNCNvMs0_NtNtCs4N6kI5JLQmX_14mcp_validators10validators8base_mcpNtB7_12MCPValidator26validate_initialize_params0Bb_
FN:250,_RNCNvMs0_NtNtCs4N6kI5JLQmX_14mcp_validators10validators8base_mcpNtB7_12MCPValidator26validate_prompt_get_params0Bb_
FN:241,_RNCNvMs0_NtNtCs4N6kI5JLQmX_14mcp_validators10validators8base_mcpNtB7_12MCPValidator29validate_resource_read_params0Bb_
FN:324,_RNvNtNtNtCsjgtEJkoBHnr_14mcp_validators10validators8base_mcp5testss_15test_is_request
FN:333,_RNvNtNtNtCsjgtEJkoBHnr_14mcp_validators10validators8base_mcp5testss_16test_is_response
FN:283,_RNvNtNtNtCsjgtEJkoBHnr_14mcp_validators10validators8base_mcp5testss_18test_valid_request
FN:311,_RNvNtNtNtCsjgtEJkoBHnr_14mcp_validators10validators8base_mcp5testss_19test_valid_response
FN:342,_RNvNtNtNtCsjgtEJkoBHnr_14mcp_validators10validators8base_mcp5testss_20test_is_notification
FN:848,_RNvNtNtNtCsjgtEJkoBHnr_14mcp_validators10validators8base_mcp5testss_21test_all_tool_methods
FN:906,_RNvNtNtNtCsjgtEJkoBHnr_14mcp_validators10validators8base_mcp5testss_22test_validator_default
FN:739,_RNvNtNtNtCsjgtEJkoBHnr_14mcp_validators10validators8base_mcp5testss_23test_notification_valid
FN:376,_RNvNtNtNtCsjgtEJkoBHnr_14mcp_validators10validators8base_mcp5testss_23test_request_missing_id
FN:430,_RNvNtNtNtCsjgtEJkoBHnr_14mcp_validators10validators8base_mcp5testss_24test_request_with_params
FN:727,_RNvNtNtNtCsjgtEJkoBHnr_14mcp_validators10validators8base_mcp5testss_24test_response_missing_id
FN:652,_RNvNtNtNtCsjgtEJkoBHnr_14mcp_validators10validators8base_mcp5testss_24test_response_with_error
FN:864,_RNvNtNtNtCsjgtEJkoBHnr_14mcp_validators10validators8base_mcp5testss_25test_all_resource_methods
FN:388,_RNvNtNtNtCsjgtEJkoBHnr_14mcp_validators10validators8base_mcp5testss_25test_request_empty_method
FN:832,_RNvNtNtNtCsjgtEJkoBHnr_14mcp_validators10validators8base_mcp5testss_26test_all_lifecycle_methods
FN:797,_RNvNtNtNtCsjgtEJkoBHnr_14mcp_validators10validators8base_mcp5testss_27test_is_response_with_error
FN:364,_RNvNtNtNtCsjgtEJkoBHnr_14mcp_validators10validators8base_mcp5testss_27test_request_missing_method
FN:403,_RNvNtNtNtCsjgtEJkoBHnr_14mcp_validators10validators8base_mcp5testss_27test_request_with_string_id
FN:297,_RNvNtNtNtCsjgtEJkoBHnr_14mcp_validators10validators8base_mcp5testss_28test_invalid_jsonrpc_version
FN:352,_RNvNtNtNtCsjgtEJkoBHnr_14mcp_validators10validators8base_mcp5testss_28test_request_missing_jsonrpc
FN:886,_RNvNtNtNtCsjgtEJkoBHnr_14mcp_validators10validators8base_mcp5testss_29test_all_notification_methods
FN:912,_RNvNtNtNtCsjgtEJkoBHnr_14mcp_validators10validators8base_mcp5testss_29test_error_with_valid_message
FN:444,_RNvNtNtNtCsjgtEJkoBHnr_14mcp_validators10validators8base_mcp5testss_29test_initialize_request_valid
FN:751,_RNvNtNtNtCsjgtEJkoBHnr_14mcp_validators10validators8base_mcp5testss_29test_notification_with_params
FN:506,_RNvNtNtNtCsjgtEJkoBHnr_14mcp_validators10validators8base_mcp5testss_29test_tools_call_request_valid
FN:806,_RNvNtNtNtCsjgtEJkoBHnr_14mcp_validators10validators8base_mcp5testss_30test_is_notification_no_method
FN:569,_RNvNtNtNtCsjgtEJkoBHnr_14mcp_validators10validators8base_mcp5testss_30test_prompts_get_request_valid
FN:776,_RNvNtNtNtCsjgtEJkoBHnr_14mcp_validators10validators8base_mcp5testss_32test_notification_missing_method
FN:814,_RNvNtNtNtCsjgtEJkoBHnr_14mcp_validators10validators8base_mcp5testss_32test_validation_result_add_error
FN:764,_RNvNtNtNtCsjgtEJkoBHnr_14mcp_validators10validators8base_mcp5testss_33test_notification_invalid_version
FN:539,_RNvNtNtNtCsjgtEJkoBHnr_14mcp_validators10validators8base_mcp5testss_33test_resources_read_request_valid
FN:668,_RNvNtNtNtCsjgtEJkoBHnr_14mcp_validators10validators8base_mcp5testss_33test_response_with_error_and_data
FN:636,_RNvNtNtNtCsjgtEJkoBHnr_14mcp_validators10validators8base_mcp5testss_34test_prompts_get_request_no_params
FN:824,_RNvNtNtNtCsjgtEJkoBHnr_14mcp_validators10validators8base_mcp5testss_34test_validation_result_add_warning
FN:600,_RNvNtNtNtCsjgtEJkoBHnr_14mcp_validators10validators8base_mcp5testss_35test_prompts_get_request_empty_name
FN:416,_RNvNtNtNtCsjgtEJkoBHnr_14mcp_validators10validators8base_mcp5testss_35test_request_unknown_method_warning
FN:523,_RNvNtNtNtCsjgtEJkoBHnr_14mcp_validators10validators8base_mcp5testss_36test_tools_call_request_missing_name
FN:585,_RNvNtNtNtCsjgtEJkoBHnr_14mcp_validators10validators8base_mcp5testss_37test_prompts_get_request_missing_name
FN:714,_RNvNtNtNtCsjgtEJkoBHnr_14mcp_validators10validators8base_mcp5testss_37test_response_invalid_jsonrpc_version
FN:618,_RNvNtNtNtCsjgtEJkoBHnr_14mcp_validators10validators8base_mcp5testss_39test_prompts_get_request_with_arguments
FN:555,_RNvNtNtNtCsjgtEJkoBHnr_14mcp_validators10validators8base_mcp5testss_39test_resources_read_request_missing_uri
FN:787,_RNvNtNtNtCsjgtEJkoBHnr_14mcp_validators10validators8base_mcp5testss_40test_is_request_with_notification_method
FN:685,_RNvNtNtNtCsjgtEJkoBHnr_14mcp_validators10validators8base_mcp5testss_40test_response_with_both_result_and_error
FN:702,_RNvNtNtNtCsjgtEJkoBHnr_14mcp_validators10validators8base_mcp5testss_43test_response_with_neither_result_nor_error
FN:485,_RNvNtNtNtCsjgtEJkoBHnr_14mcp_validators10validators8base_mcp5testss_46test_initialize_request_invalid_version_format
FN:939,_RNvNtNtNtCsjgtEJkoBHnr_14mcp_validators10validators8base_mcp5testss_46test_response_both_result_and_error_validation
FN:928,_RNvNtNtNtCsjgtEJkoBHnr_14mcp_validators10validators8base_mcp5testss_47test_notification_method_with_id_is_not_request
FN:465,_RNvNtNtNtCsjgtEJkoBHnr_14mcp_validators10validators8base_mcp5testss_48test_initialize_request_missing_protocol_version
FN:232,_RNCNvMs0_NtNtCsjgtEJkoBHnr_14mcp_validators10validators8base_mcpNtB7_12MCPValidator25validate_tool_call_params0Bb_
FN:223,_RNCNvMs0_NtNtCsjgtEJkoBHnr_14mcp_validators10validators8base_mcpNtB7_12MCPValidator26validate_initialize_params0Bb_
FN:250,_RNCNvMs0_NtNtCsjgtEJkoBHnr_14mcp_validators10validators8base_mcpNtB7_12MCPValidator26validate_prompt_get_params0Bb_
FN:241,_RNCNvMs0_NtNtCsjgtEJkoBHnr_14mcp_validators10validators8base_mcpNtB7_12MCPValidator29validate_resource_read_params0Bb_
FN:954,_RNCNvNtNtNtCsjgtEJkoBHnr_14mcp_validators10validators8base_mcp5testss_46test_response_both_result_and_error_validation0B9_
FN:58,_RNvMNtNtCsjgtEJkoBHnr_14mcp_validators10validators8base_mcpNtB2_16ValidationResult11add_warning
FN:44,_RNvMNtNtCsjgtEJkoBHnr_14mcp_validators10validators8base_mcpNtB2_16ValidationResult3new
FN:53,_RNvMNtNtCsjgtEJkoBHnr_14mcp_validators10validators8base_mcpNtB2_16ValidationResult9add_error
FN:255,_RNvMs0_NtNtCsjgtEJkoBHnr_14mcp_validators10validators8base_mcpNtB5_12MCPValidator10is_request
FN:266,_RNvMs0_NtNtCsjgtEJkoBHnr_14mcp_validators10validators8base_mcpNtB5_12MCPValidator11is_response
FN:272,_RNvMs0_NtNtCsjgtEJkoBHnr_14mcp_validators10validators8base_mcpNtB5_12MCPValidator15is_notification
FN:119,_RNvMs0_NtNtCsjgtEJkoBHnr_14mcp_validators10validators8base_mcpNtB5_12MCPValidator16validate_request
FN:173,_RNvMs0_NtNtCsjgtEJkoBHnr_14mcp_validators10validators8base_mcpNtB5_12MCPValidator17validate_response
FN:200,_RNvMs0_NtNtCsjgtEJkoBHnr_14mcp_validators10validators8base_mcpNtB5_12MCPValidator21validate_notification
FN:228,_RNvMs0_NtNtCsjgtEJkoBHnr_14mcp_validators10validators8base_mcpNtB5_12MCPValidator25validate_tool_call_params
FN:219,_RNvMs0_NtNtCsjgtEJkoBHnr_14mcp_validators10validators8base_mcpNtB5_12MCPValidator26validate_initialize_params
FN:246,_RNvMs0_NtNtCsjgtEJkoBHnr_14mcp_validators10validators8base_mcpNtB5_12MCPValidator26validate_prompt_get_params
FN:237,_RNvMs0_NtNtCsjgtEJkoBHnr_14mcp_validators10validators8base_mcpNtB5_12MCPValidator29validate_resource_read_params
FN:79,_RNvMs0_NtNtCsjgtEJkoBHnr_14mcp_validators10validators8base_mcpNtB5_12MCPValidator3new
FN:72,_RNvXs_NtNtCsjgtEJkoBHnr_14mcp_validators10validators8base_mcpNtB4_12MCPValidatorNtNtCslH02haMvknO_4core7default7Default7default
FNDA:2,_RNvMNtNtCs4N6kI5JLQmX_14mcp_validators10validators8base_mcpNtB2_16ValidationResult11add_warning
FNDA:20,_RNvMNtNtCs4N6kI5JLQmX_14mcp_validators10validators8base_mcpNtB2_16ValidationResult3new
FNDA:2,_RNvMNtNtCs4N6kI5JLQmX_14mcp_validators10validators8base_mcpNtB2_16ValidationResult9add_error
FNDA:4,_RNvMs0_NtNtCs4N6kI5JLQmX_14mcp_validators10validators8base_mcpNtB5_12MCPValidator10is_request
FNDA:4,_RNvMs0_NtNtCs4N6kI5JLQmX_14mcp_validators10validators8base_mcpNtB5_12MCPValidator11is_response
FNDA:3,_RNvMs0_NtNtCs4N6kI5JLQmX_14mcp_validators10validators8base_mcpNtB5_12MCPValidator15is_notification
FNDA:6,_RNvMs0_NtNtCs4N6kI5JLQmX_14mcp_validators10validators8base_mcpNtB5_12MCPValidator16validate_request
FNDA:1,_RNvMs0_NtNtCs4N6kI5JLQmX_14mcp_validators10validators8base_mcpNtB5_12MCPValidator17validate_response
FNDA:1,_RNvMs0_NtNtCs4N6kI5JLQmX_14mcp_validators10validators8base_mcpNtB5_12MCPValidator21validate_notification
FNDA:1,_RNvMs0_NtNtCs4N6kI5JLQmX_14mcp_validators10validators8base_mcpNtB5_12MCPValidator25validate_tool_call_params
FNDA:1,_RNvMs0_NtNtCs4N6kI5JLQmX_14mcp_validators10validators8base_mcpNtB5_12MCPValidator26validate_initialize_params
FNDA:1,_RNvMs0_NtNtCs4N6kI5JLQmX_14mcp_validators10validators8base_mcpNtB5_12MCPValidator26validate_prompt_get_params
FNDA:1,_RNvMs0_NtNtCs4N6kI5JLQmX_14mcp_validators10validators8base_mcpNtB5_12MCPValidator29validate_resource_read_params
FNDA:8,_RNvMs0_NtNtCs4N6kI5JLQmX_14mcp_validators10validators8base_mcpNtB5_12MCPValidator3new
FNDA:1,_RNvXs_NtNtCs4N6kI5JLQmX_14mcp_validators10validators8base_mcpNtB4_12MCPValidatorNtNtCslH02haMvknO_4core7default7Default7default
FNDA:0,_RNCNvMs0_NtNtCs4N6kI5JLQmX_14mcp_validators10validators8base_mcpNtB7_12MCPValidator25validate_tool_call_params0Bb_
FNDA:0,_RNCNvMs0_NtNtCs4N6kI5JLQmX_14mcp_validators10validators8base_mcpNtB7_12MCPValidator26validate_initialize_params0Bb_
FNDA:0,_RNCNvMs0_NtNtCs4N6kI5JLQmX_14mcp_validators10validators8base_mcpNtB7_12MCPValidator26validate_prompt_get_params0Bb_
FNDA:0,_RNCNvMs0_NtNtCs4N6kI5JLQmX_14mcp_validators10validators8base_mcpNtB7_12MCPValidator29validate_resource_read_params0Bb_
FNDA:1,_RNvNtNtNtCsjgtEJkoBHnr_14mcp_validators10validators8base_mcp5testss_15test_is_request
FNDA:1,_RNvNtNtNtCsjgtEJkoBHnr_14mcp_validators10validators8base_mcp5testss_16test_is_response
FNDA:1,_RNvNtNtNtCsjgtEJkoBHnr_14mcp_validators10validators8base_mcp5testss_18test_valid_request
FNDA:1,_RNvNtNtNtCsjgtEJkoBHnr_14mcp_validators10validators8base_mcp5testss_19test_valid_response
FNDA:1,_RNvNtNtNtCsjgtEJkoBHnr_14mcp_validators10validators8base_mcp5testss_20test_is_notification
FNDA:1,_RNvNtNtNtCsjgtEJkoBHnr_14mcp_validators10validators8base_mcp5testss_21test_all_tool_methods
FNDA:1,_RNvNtNtNtCsjgtEJkoBHnr_14mcp_validators10validators8base_mcp5testss_22test_validator_default
FNDA:1,_RNvNtNtNtCsjgtEJkoBHnr_14mcp_validators10validators8base_mcp5testss_23test_notification_valid
FNDA:1,_RNvNtNtNtCsjgtEJkoBHnr_14mcp_validators10validators8base_mcp5testss_23test_request_missing_id
FNDA:1,_RNvNtNtNtCsjgtEJkoBHnr_14mcp_validators10validators8base_mcp5testss_24test_request_with_params
FNDA:1,_RNvNtNtNtCsjgtEJkoBHnr_14mcp_validators10validators8base_mcp5testss_24test_response_missing_id
FNDA:1,_RNvNtNtNtCsjgtEJkoBHnr_14mcp_validators10validators8base_mcp5testss_24test_response_with_error
FNDA:1,_RNvNtNtNtCsjgtEJkoBHnr_14mcp_validators10validators8base_mcp5testss_25test_all_resource_methods
FNDA:1,_RNvNtNtNtCsjgtEJkoBHnr_14mcp_validators10validators8base_mcp5testss_25test_request_empty_method
FNDA:1,_RNvNtNtNtCsjgtEJkoBHnr_14mcp_validators10validators8base_mcp5testss_26test_all_lifecycle_methods
FNDA:1,_RNvNtNtNtCsjgtEJkoBHnr_14mcp_validators10validators8base_mcp5testss_27test_is_response_with_error
FNDA:1,_RNvNtNtNtCsjgtEJkoBHnr_14mcp_validators10validators8base_mcp5testss_27test_request_missing_method
FNDA:1,_RNvNtNtNtCsjgtEJkoBHnr_14mcp_validators10validators8base_mcp5testss_27test_request_with_string_id
FNDA:1,_RNvNtNtNtCsjgtEJkoBHnr_14mcp_validators10validators8base_mcp5testss_28test_invalid_jsonrpc_version
FNDA:1,_RNvNtNtNtCsjgtEJkoBHnr_14mcp_validators10validators8base_mcp5testss_28test_request_missing_jsonrpc
FNDA:1,_RNvNtNtNtCsjgtEJkoBHnr_14mcp_validators10validators8base_mcp5testss_29test_all_notification_methods
FNDA:1,_RNvNtNtNtCsjgtEJkoBHnr_14mcp_validators10validators8base_mcp5testss_29test_error_with_valid_message
FNDA:1,_RNvNtNtNtCsjgtEJkoBHnr_14mcp_validators10validators8base_mcp5testss_29test_initialize_request_valid
FNDA:1,_RNvNtNtNtCsjgtEJkoBHnr_14mcp_validators10validators8base_mcp5testss_29test_notification_with_params
FNDA:1,_RNvNtNtNtCsjgtEJkoBHnr_14mcp_validators10validators8base_mcp5testss_29test_tools_call_request_valid
FNDA:1,_RNvNtNtNtCsjgtEJkoBHnr_14mcp_validators10validators8base_mcp5testss_30test_is_notification_no_method
FNDA:1,_RNvNtNtNtCsjgtEJkoBHnr_14mcp_validators10validators8base_mcp5testss_30test_prompts_get_request_valid
FNDA:1,_RNvNtNtNtCsjgtEJkoBHnr_14mcp_validators10validators8base_mcp5testss_32test_notification_missing_method
FNDA:1,_RNvNtNtNtCsjgtEJkoBHnr_14mcp_validators10validators8base_mcp5testss_32test_validation_result_add_error
FNDA:1,_RNvNtNtNtCsjgtEJkoBHnr_14mcp_validators10validators8base_mcp5testss_33test_notification_invalid_version
FNDA:1,_RNvNtNtNtCsjgtEJkoBHnr_14mcp_validators10validators8base_mcp5testss_33test_resources_read_request_valid
FNDA:1,_RNvNtNtNtCsjgtEJkoBHnr_14mcp_validators10validators8base_mcp5testss_33test_response_with_error_and_data
FNDA:1,_RNvNtNtNtCsjgtEJkoBHnr_14mcp_validators10validators8base_mcp5testss_34test_prompts_get_request_no_params
FNDA:1,_RNvNtNtNtCsjgtEJkoBHnr_14mcp_validators10validators8base_mcp5testss_34test_validation_result_add_warning
FNDA:1,_RNvNtNtNtCsjgtEJkoBHnr_14mcp_validators10validators8base_mcp5testss_35test_prompts_get_request_empty_name
FNDA:1,_RNvNtNtNtCsjgtEJkoBHnr_14mcp_validators10validators8base_mcp5testss_35test_request_unknown_method_warning
FNDA:1,_RNvNtNtNtCsjgtEJkoBHnr_14mcp_validators10validators8base_mcp5testss_36test_tools_call_request_missing_name
FNDA:1,_RNvNtNtNtCsjgtEJkoBHnr_14mcp_validators10validators8base_mcp5testss_37test_prompts_get_request_missing_name
FNDA:1,_RNvNtNtNtCsjgtEJkoBHnr_14mcp_validators10validators8base_mcp5testss_37test_response_invalid_jsonrpc_version
FNDA:1,_RNvNtNtNtCsjgtEJkoBHnr_14mcp_validators10validators8base_mcp5testss_39test_prompts_get_request_with_arguments
FNDA:1,_RNvNtNtNtCsjgtEJkoBHnr_14mcp_validators10validators8base_mcp5testss_39test_resources_read_request_missing_uri
FNDA:1,_RNvNtNtNtCsjgtEJkoBHnr_14mcp_validators10validators8base_mcp5testss_40test_is_request_with_notification_method
FNDA:1,_RNvNtNtNtCsjgtEJkoBHnr_14mcp_validators10validators8base_mcp5testss_40test_response_with_both_result_and_error
FNDA:1,_RNvNtNtNtCsjgtEJkoBHnr_14mcp_validators10validators8base_mcp5testss_43test_response_with_neither_result_nor_error
FNDA:1,_RNvNtNtNtCsjgtEJkoBHnr_14mcp_validators10validators8base_mcp5testss_46test_initialize_request_invalid_version_format
FNDA:1,_RNvNtNtNtCsjgtEJkoBHnr_14mcp_validators10validators8base_mcp5testss_46test_response_both_result_and_error_validation
FNDA:1,_RNvNtNtNtCsjgtEJkoBHnr_14mcp_validators10validators8base_mcp5testss_47test_notification_method_with_id_is_not_request
FNDA:1,_RNvNtNtNtCsjgtEJkoBHnr_14mcp_validators10validators8base_mcp5testss_48test_initialize_request_missing_protocol_version
FNDA:0,_RNCNvMs0_NtNtCsjgtEJkoBHnr_14mcp_validators10validators8base_mcpNtB7_12MCPValidator25validate_tool_call_params0Bb_
FNDA:1,_RNCNvMs0_NtNtCsjgtEJkoBHnr_14mcp_validators10validators8base_mcpNtB7_12MCPValidator26validate_initialize_params0Bb_
FNDA:1,_RNCNvMs0_NtNtCsjgtEJkoBHnr_14mcp_validators10validators8base_mcpNtB7_12MCPValidator26validate_prompt_get_params0Bb_
FNDA:0,_RNCNvMs0_NtNtCsjgtEJkoBHnr_14mcp_validators10validators8base_mcpNtB7_12MCPValidator29validate_resource_read_params0Bb_
FNDA:1,_RNCNvNtNtNtCsjgtEJkoBHnr_14mcp_validators10validators8base_mcp5testss_46test_response_both_result_and_error_validation0B9_
FNDA:8,_RNvMNtNtCsjgtEJkoBHnr_14mcp_validators10validators8base_mcpNtB2_16ValidationResult11add_warning
FNDA:135,_RNvMNtNtCsjgtEJkoBHnr_14mcp_validators10validators8base_mcpNtB2_16ValidationResult3new
FNDA:39,_RNvMNtNtCsjgtEJkoBHnr_14mcp_validators10validators8base_mcpNtB2_16ValidationResult9add_error
FNDA:3,_RNvMs0_NtNtCsjgtEJkoBHnr_14mcp_validators10validators8base_mcpNtB5_12MCPValidator10is_request
FNDA:2,_RNvMs0_NtNtCsjgtEJkoBHnr_14mcp_validators10validators8base_mcpNtB5_12MCPValidator11is_response
FNDA:2,_RNvMs0_NtNtCsjgtEJkoBHnr_14mcp_validators10validators8base_mcpNtB5_12MCPValidator15is_notification
FNDA:31,_RNvMs0_NtNtCsjgtEJkoBHnr_14mcp_validators10validators8base_mcpNtB5_12MCPValidator16validate_request
FNDA:9,_RNvMs0_NtNtCsjgtEJkoBHnr_14mcp_validators10validators8base_mcpNtB5_12MCPValidator17validate_response
FNDA:8,_RNvMs0_NtNtCsjgtEJkoBHnr_14mcp_validators10validators8base_mcpNtB5_12MCPValidator21validate_notification
FNDA:2,_RNvMs0_NtNtCsjgtEJkoBHnr_14mcp_validators10validators8base_mcpNtB5_12MCPValidator25validate_tool_call_params
FNDA:3,_RNvMs0_NtNtCsjgtEJkoBHnr_14mcp_validators10validators8base_mcpNtB5_12MCPValidator26validate_initialize_params
FNDA:4,_RNvMs0_NtNtCsjgtEJkoBHnr_14mcp_validators10validators8base_mcpNtB5_12MCPValidator26validate_prompt_get_params
FNDA:2,_RNvMs0_NtNtCsjgtEJkoBHnr_14mcp_validators10validators8base_mcpNtB5_12MCPValidator29validate_resource_read_params
FNDA:39,_RNvMs0_NtNtCsjgtEJkoBHnr_14mcp_validators10validators8base_mcpNtB5_12MCPValidator3new
FNDA:1,_RNvXs_NtNtCsjgtEJkoBHnr_14mcp_validators10validators8base_mcpNtB4_12MCPValidatorNtNtCslH02haMvknO_4core7default7Default7default
FNF:68
FNH:66
DA:44,155
DA:45,155
DA:46,155
DA:47,155
DA:48,155
DA:49,155
DA:50,155
DA:51,155
DA:53,41
DA:54,41
DA:55,41
DA:56,41
DA:58,10
DA:59,10
DA:60,10
DA:72,2
DA:73,2
DA:74,2
DA:79,47
DA:80,47
DA:83,47
DA:84,47
DA:86,47
DA:88,47
DA:89,47
DA:91,47
DA:92,47
DA:93,47
DA:94,47
DA:95,47
DA:97,47
DA:98,47
DA:100,47
DA:101,47
DA:102,47
DA:103,47
DA:105,47
DA:107,47
DA:109,47
DA:111,47
DA:112,47
DA:113,47
DA:115,47
DA:116,47
DA:119,37
DA:120,37
DA:123,37
DA:126,34
DA:127,2
DA:128,2
DA:129,32
DA:132,32
DA:133,1
DA:134,31
DA:137,32
DA:138,32
DA:139,5
DA:140,4
DA:141,2
DA:142,2
DA:143,1
DA:145,27
DA:146,4
DA:147,3
DA:148,1
DA:149,2
DA:150,1
DA:152,23
DA:153,4
DA:154,3
DA:155,1
DA:156,2
DA:157,1
DA:159,19
DA:160,6
DA:161,5
DA:162,2
DA:163,3
DA:164,1
DA:166,13
DA:169,32
DA:170,37
DA:173,10
DA:174,10
DA:177,10
DA:180,9
DA:181,1
DA:182,1
DA:183,8
DA:186,8
DA:187,2
DA:188,2
DA:189,2
DA:190,1
DA:191,1
DA:192,1
DA:193,5
DA:196,8
DA:197,10
DA:200,9
DA:201,9
DA:202,9
DA:203,9
DA:204,9
DA:207,9
DA:210,8
DA:211,1
DA:212,1
DA:213,7
DA:215,7
DA:216,9
DA:219,4
DA:220,4
DA:221,3
DA:222,3
DA:223,3
DA:224,2
DA:225,4
DA:228,3
DA:229,3
DA:230,2
DA:231,2
DA:232,2
DA:233,2
DA:234,3
DA:237,3
DA:238,3
DA:239,2
DA:240,2
DA:241,2
DA:242,2
DA:243,3
DA:246,5
DA:247,5
DA:248,4
DA:249,4
DA:250,4
DA:251,3
DA:252,5
DA:255,7
DA:256,7
DA:257,6
DA:258,5
DA:259,5
DA:260,5
DA:261,5
DA:262,5
DA:263,7
DA:266,6
DA:267,6
DA:268,5
DA:269,6
DA:272,5
DA:273,5
DA:274,5
DA:283,1
DA:284,1
DA:285,1
DA:286,1
DA:287,1
DA:288,1
DA:291,1
DA:292,1
DA:293,1
DA:294,1
DA:297,1
DA:298,1
DA:299,1
DA:300,1
DA:301,1
DA:302,1
DA:306,1
DA:307,1
DA:308,1
DA:311,1
DA:312,1
DA:313,1
DA:314,1
DA:315,1
DA:316,1
DA:319,1
DA:320,1
DA:321,1
DA:324,1
DA:325,1
DA:326,1
DA:327,1
DA:329,1
DA:330,1
DA:333,1
DA:334,1
DA:335,1
DA:336,1
DA:338,1
DA:339,1
DA:342,1
DA:343,1
DA:344,1
DA:346,1
DA:347,1
DA:352,1
DA:353,1
DA:354,1
DA:355,1
DA:356,1
DA:359,1
DA:360,1
DA:361,1
DA:364,1
DA:365,1
DA:366,1
DA:367,1
DA:368,1
DA:371,1
DA:372,1
DA:373,1
DA:376,1
DA:377,1
DA:378,1
DA:379,1
DA:380,1
DA:383,1
DA:384,1
DA:385,1
DA:388,1
DA:389,1
DA:390,1
DA:391,1
DA:392,1
DA:393,1
DA:397,1
DA:398,1
DA:399,1
DA:400,1
DA:403,1
DA:404,1
DA:405,1
DA:406,1
DA:407,1
DA:408,1
DA:411,1
DA:412,1
DA:413,1
DA:416,1
DA:417,1
DA:418,1
DA:419,1
DA:420,1
DA:421,1
DA:424,1
DA:425,1
DA:426,1
DA:427,1
DA:430,1
DA:431,1
DA:432,1
DA:433,1
DA:434,1
DA:435,1
DA:436,1
DA:439,1
DA:440,1
DA:441,1
DA:444,1
DA:445,1
DA:446,1
DA:447,1
DA:448,1
DA:449,1
DA:450,1
DA:451,1
DA:452,1
DA:453,1
DA:455,1
DA:457,1
DA:460,1
DA:461,1
DA:462,1
DA:465,1
DA:466,1
DA:467,1
DA:468,1
DA:469,1
DA:470,1
DA:471,1
DA:472,1
DA:473,1
DA:475,1
DA:477,1
DA:480,1
DA:481,1
DA:482,1
DA:485,1
DA:486,1
DA:487,1
DA:488,1
DA:489,1
DA:490,1
DA:491,1
DA:492,1
DA:493,1
DA:494,1
DA:496,1
DA:498,1
DA:501,1
DA:502,1
DA:503,1
DA:506,1
DA:507,1
DA:508,1
DA:509,1
DA:510,1
DA:511,1
DA:512,1
DA:513,1
DA:515,1
DA:518,1
DA:519,1
DA:520,1
DA:523,1
DA:524,1
DA:525,1
DA:526,1
DA:527,1
DA:528,1
DA:529,1
DA:531,1
DA:534,1
DA:535,1
DA:536,1
DA:539,1
DA:540,1
DA:541,1
DA:542,1
DA:543,1
DA:544,1
DA:545,1
DA:547,1
DA:550,1
DA:551,1
DA:552,1
DA:555,1
DA:556,1
DA:557,1
DA:558,1
DA:559,1
DA:560,1
DA:561,1
DA:564,1
DA:565,1
DA:566,1
DA:569,1
DA:570,1
DA:571,1
DA:572,1
DA:573,1
DA:574,1
DA:575,1
DA:577,1
DA:580,1
DA:581,1
DA:582,1
DA:585,1
DA:586,1
DA:587,1
DA:588,1
DA:589,1
DA:590,1
DA:591,1
DA:594,1
DA:595,1
DA:596,1
DA:597,1
DA:600,1
DA:602,1
DA:603,1
DA:604,1
DA:605,1
DA:606,1
DA:607,1
DA:609,1
DA:612,1
DA:613,1
DA:614,1
DA:615,1
DA:618,1
DA:620,1
DA:621,1
DA:622,1
DA:623,1
DA:624,1
DA:625,1
DA:626,1
DA:628,1
DA:631,1
DA:632,1
DA:633,1
DA:636,1
DA:638,1
DA:639,1
DA:640,1
DA:641,1
DA:642,1
DA:645,1
DA:648,1
DA:649,1
DA:652,1
DA:653,1
DA:654,1
DA:655,1
DA:656,1
DA:657,1
DA:658,1
DA:660,1
DA:663,1
DA:664,1
DA:665,1
DA:668,1
DA:669,1
DA:670,1
DA:671,1
DA:672,1
DA:673,1
DA:674,1
DA:675,1
DA:677,1
DA:680,1
DA:681,1
DA:682,1
DA:685,1
DA:686,1
DA:687,1
DA:688,1
DA:689,1
DA:690,1
DA:691,1
DA:692,1
DA:694,1
DA:697,1
DA:698,1
DA:699,1
DA:702,1
DA:703,1
DA:704,1
DA:705,1
DA:706,1
DA:709,1
DA:710,1
DA:711,1
DA:714,1
DA:715,1
DA:716,1
DA:717,1
DA:718,1
DA:719,1
DA:722,1
DA:723,1
DA:724,1
DA:727,1
DA:728,1
DA:729,1
DA:730,1
DA:731,1
DA:734,1
DA:735,1
DA:736,1
DA:739,1
DA:740,1
DA:741,1
DA:742,1
DA:743,1
DA:746,1
DA:747,1
DA:748,1
DA:751,1
DA:752,1
DA:753,1
DA:754,1
DA:755,1
DA:756,1
DA:759,1
DA:760,1
DA:761,1
DA:764,1
DA:765,1
DA:766,1
DA:767,1
DA:768,1
DA:771,1
DA:772,1
DA:773,1
DA:776,1
DA:777,1
DA:778,1
DA:779,1
DA:782,1
DA:783,1
DA:784,1
DA:787,1
DA:788,1
DA:789,1
DA:790,1
DA:793,1
DA:794,1
DA:797,1
DA:798,1
DA:799,1
DA:800,1
DA:802,1
DA:803,1
DA:806,1
DA:807,1
DA:808,1
DA:810,1
DA:811,1
DA:814,1
DA:815,1
DA:816,1
DA:818,1
DA:819,1
DA:820,1
DA:821,1
DA:824,1
DA:825,1
DA:826,1
DA:827,1
DA:828,1
DA:829,1
DA:832,1
DA:833,1
DA:834,1
DA:836,3
DA:837,3
DA:838,3
DA:839,3
DA:840,3
DA:842,3
DA:843,3
DA:845,1
DA:848,1
DA:849,1
DA:850,1
DA:852,2
DA:853,2
DA:854,2
DA:855,2
DA:856,2
DA:858,2
DA:859,2
DA:861,1
DA:864,1
DA:865,1
DA:866,1
DA:868,1
DA:869,1
DA:870,1
DA:871,1
DA:874,5
DA:875,5
DA:876,5
DA:877,5
DA:878,5
DA:880,5
DA:881,5
DA:883,1
DA:886,1
DA:887,1
DA:888,1
DA:890,1
DA:891,1
DA:892,1
DA:895,4
DA:896,4
DA:897,4
DA:898,4
DA:900,4
DA:901,4
DA:903,1
DA:906,1
DA:907,1
DA:908,1
DA:909,1
DA:912,1
DA:913,1
DA:914,1
DA:915,1
DA:916,1
DA:917,1
DA:918,1
DA:920,1
DA:923,1
DA:924,1
DA:925,1
DA:928,1
DA:931,1
DA:932,1
DA:933,1
DA:935,1
DA:936,1
DA:939,1
DA:941,1
DA:942,1
DA:943,1
DA:944,1
DA:945,1
DA:946,1
DA:947,1
DA:949,1
DA:952,1
DA:953,1
DA:954,1
DA:955,1
BRF:0
BRH:0
LF:617
LH:615
end_of_record
SF:/home/runner/work/Mcp-Plus-Plus/Mcp-Plus-Plus/tests-rs/src/validators/cid_artifacts.rs
FN:44,_RNvMNtNtCs4N6kI5JLQmX_14mcp_validators10validators13cid_artifactsNtB2_21CIDArtifactsValidator16validate_receipt
FN:21,_RNvMNtNtCs4N6kI5JLQmX_14mcp_validators10validators13cid_artifactsNtB2_21CIDArtifactsValidator17validate_envelope
FN:15,_RNvMNtNtCs4N6kI5JLQmX_14mcp_validators10validators13cid_artifactsNtB2_21CIDArtifactsValidator3new
FN:59,_RNvXs_NtNtCs4N6kI5JLQmX_14mcp_validators10validators13cid_artifactsNtB4_21CIDArtifactsValidatorNtNtCslH02haMvknO_4core7default7Default7default
FN:44,_RNvMNtNtCsjgtEJkoBHnr_14mcp_validators10validators13cid_artifactsNtB2_21CIDArtifactsValidator16validate_receipt
FN:21,_RNvMNtNtCsjgtEJkoBHnr_14mcp_validators10validators13cid_artifactsNtB2_21CIDArtifactsValidator17validate_envelope
FN:15,_RNvMNtNtCsjgtEJkoBHnr_14mcp_validators10validators13cid_artifactsNtB2_21CIDArtifactsValidator3new
FN:59,_RNvXs_NtNtCsjgtEJkoBHnr_14mcp_validators10validators13cid_artifactsNtB4_21CIDArtifactsValidatorNtNtCslH02haMvknO_4core7default7Default7default
FN:311,_RNCNvNtNtNtCsjgtEJkoBHnr_14mcp_validators10validators13cid_artifacts5testss_43test_envelope_empty_parents_genesis_warning0B9_
FN:84,_RNvNtNtNtCsjgtEJkoBHnr_14mcp_validators10validators13cid_artifacts5testss_18test_valid_receipt
FN:70,_RNvNtNtNtCsjgtEJkoBHnr_14mcp_validators10validators13cid_artifacts5testss_19test_valid_envelope
FN:269,_RNvNtNtNtCsjgtEJkoBHnr_14mcp_validators10validators13cid_artifacts5testss_22test_validator_default
FN:184,_RNvNtNtNtCsjgtEJkoBHnr_14mcp_validators10validators13cid_artifacts5testss_30test_envelope_multiple_parents
FN:227,_RNvNtNtNtCsjgtEJkoBHnr_14mcp_validators10validators13cid_artifacts5testss_30test_receipt_missing_signature
FN:128,_RNvNtNtNtCsjgtEJkoBHnr_14mcp_validators10validators13cid_artifacts5testss_31test_envelope_missing_input_cid
FN:141,_RNvNtNtNtCsjgtEJkoBHnr_14mcp_validators10validators13cid_artifacts5testss_31test_envelope_missing_timestamp
FN:253,_RNvNtNtNtCsjgtEJkoBHnr_14mcp_validators10validators13cid_artifacts5testss_31test_receipt_invalid_cid_format
FN:214,_RNvNtNtNtCsjgtEJkoBHnr_14mcp_validators10validators13cid_artifacts5testss_31test_receipt_missing_output_cid
FN:100,_RNvNtNtNtCsjgtEJkoBHnr_14mcp_validators10validators13cid_artifacts5testss_32test_envelope_genesis_no_parents
FN:154,_RNvNtNtNtCsjgtEJkoBHnr_14mcp_validators10validators13cid_artifacts5testss_32test_envelope_invalid_cid_format
FN:240,_RNvNtNtNtCsjgtEJkoBHnr_14mcp_validators10validators13cid_artifacts5testss_32test_receipt_missing_receipt_cid
FN:201,_RNvNtNtNtCsjgtEJkoBHnr_14mcp_validators10validators13cid_artifacts5testss_33test_receipt_missing_envelope_cid
FN:115,_RNvNtNtNtCsjgtEJkoBHnr_14mcp_validators10validators13cid_artifacts5testss_35test_envelope_missing_interface_cid
FN:170,_RNvNtNtNtCsjgtEJkoBHnr_14mcp_validators10validators13cid_artifacts5testss_36test_envelope_with_complex_timestamp
FN:299,_RNvNtNtNtCsjgtEJkoBHnr_14mcp_validators10validators13cid_artifacts5testss_43test_envelope_empty_parents_genesis_warning
FN:283,_RNvNtNtNtCsjgtEJkoBHnr_14mcp_validators10validators13cid_artifacts5testss_48test_envelope_deserializes_but_fails_serde_valid
FNDA:1,_RNvMNtNtCs4N6kI5JLQmX_14mcp_validators10validators13cid_artifactsNtB2_21CIDArtifactsValidator16validate_receipt
FNDA:1,_RNvMNtNtCs4N6kI5JLQmX_14mcp_validators10validators13cid_artifactsNtB2_21CIDArtifactsValidator17validate_envelope
FNDA:2,_RNvMNtNtCs4N6kI5JLQmX_14mcp_validators10validators13cid_artifactsNtB2_21CIDArtifactsValidator3new
FNDA:0,_RNvXs_NtNtCs4N6kI5JLQmX_14mcp_validators10validators13cid_artifactsNtB4_21CIDArtifactsValidatorNtNtCslH02haMvknO_4core7default7Default7default
FNDA:6,_RNvMNtNtCsjgtEJkoBHnr_14mcp_validators10validators13cid_artifactsNtB2_21CIDArtifactsValidator16validate_receipt
FNDA:11,_RNvMNtNtCsjgtEJkoBHnr_14mcp_validators10validators13cid_artifactsNtB2_21CIDArtifactsValidator17validate_envelope
FNDA:17,_RNvMNtNtCsjgtEJkoBHnr_14mcp_validators10validators13cid_artifactsNtB2_21CIDArtifactsValidator3new
FNDA:1,_RNvXs_NtNtCsjgtEJkoBHnr_14mcp_validators10validators13cid_artifactsNtB4_21CIDArtifactsValidatorNtNtCslH02haMvknO_4core7default7Default7default
FNDA:1,_RNCNvNtNtNtCsjgtEJkoBHnr_14mcp_validators10validators13cid_artifacts5testss_43test_envelope_empty_parents_genesis_warning0B9_
FNDA:1,_RNvNtNtNtCsjgtEJkoBHnr_14mcp_validators10validators13cid_artifacts5testss_18test_valid_receipt
FNDA:1,_RNvNtNtNtCsjgtEJkoBHnr_14mcp_validators10validators13cid_artifacts5testss_19test_valid_envelope
FNDA:1,_RNvNtNtNtCsjgtEJkoBHnr_14mcp_validators10validators13cid_artifacts5testss_22test_validator_default
FNDA:1,_RNvNtNtNtCsjgtEJkoBHnr_14mcp_validators10validators13cid_artifacts5testss_30test_envelope_multiple_parents
FNDA:1,_RNvNtNtNtCsjgtEJkoBHnr_14mcp_validators10validators13cid_artifacts5testss_30test_receipt_missing_signature
FNDA:1,_RNvNtNtNtCsjgtEJkoBHnr_14mcp_validators10validators13cid_artifacts5testss_31test_envelope_missing_input_cid
FNDA:1,_RNvNtNtNtCsjgtEJkoBHnr_14mcp_validators10validators13cid_artifacts5testss_31test_envelope_missing_timestamp
FNDA:1,_RNvNtNtNtCsjgtEJkoBHnr_14mcp_validators10validators13cid_artifacts5testss_31test_receipt_invalid_cid_format
FNDA:1,_RNvNtNtNtCsjgtEJkoBHnr_14mcp_validators10validators13cid_artifacts5testss_31test_receipt_missing_output_cid
FNDA:1,_RNvNtNtNtCsjgtEJkoBHnr_14mcp_validators10validators13cid_artifacts5testss_32test_envelope_genesis_no_parents
FNDA:1,_RNvNtNtNtCsjgtEJkoBHnr_14mcp_validators10validators13cid_artifacts5testss_32test_envelope_invalid_cid_format
FNDA:1,_RNvNtNtNtCsjgtEJkoBHnr_14mcp_validators10validators13cid_artifacts5testss_32test_receipt_missing_receipt_cid
FNDA:1,_RNvNtNtNtCsjgtEJkoBHnr_14mcp_validators10validators13cid_artifacts5testss_33test_receipt_missing_envelope_cid
FNDA:1,_RNvNtNtNtCsjgtEJkoBHnr_14mcp_validators10validators13cid_artifacts5testss_35test_envelope_missing_interface_cid
FNDA:1,_RNvNtNtNtCsjgtEJkoBHnr_14mcp_validators10validators13cid_artifacts5testss_36test_envelope_with_complex_timestamp
FNDA:1,_RNvNtNtNtCsjgtEJkoBHnr_14mcp_validators10validators13cid_artifacts5testss_43test_envelope_empty_parents_genesis_warning
FNDA:1,_RNvNtNtNtCsjgtEJkoBHnr_14mcp_validators10validators13cid_artifacts5testss_48test_envelope_deserializes_but_fails_serde_valid
FNF:22
FNH:22
DA:15,19
DA:16,19
DA:17,19
DA:21,12
DA:22,12
DA:23,12
DA:24,12
DA:25,12
DA:27,12
DA:29,9
DA:30,2
DA:31,2
DA:32,7
DA:35,7
DA:36,2
DA:37,5
DA:39,7
DA:40,12
DA:44,7
DA:45,7
DA:47,7
DA:49,3
DA:50,1
DA:51,1
DA:52,2
DA:54,2
DA:55,7
DA:59,1
DA:60,1
DA:61,1
DA:70,1
DA:71,1
DA:72,1
DA:73,1
DA:74,1
DA:75,1
DA:76,1
DA:79,1
DA:80,1
DA:81,1
DA:84,1
DA:85,1
DA:86,1
DA:87,1
DA:88,1
DA:89,1
DA:90,1
DA:93,1
DA:94,1
DA:95,1
DA:100,1
DA:101,1
DA:102,1
DA:103,1
DA:104,1
DA:105,1
DA:106,1
DA:109,1
DA:110,1
DA:111,1
DA:112,1
DA:115,1
DA:116,1
DA:117,1
DA:118,1
DA:119,1
DA:120,1
DA:123,1
DA:124,1
DA:125,1
DA:128,1
DA:129,1
DA:130,1
DA:131,1
DA:132,1
DA:133,1
DA:136,1
DA:137,1
DA:138,1
DA:141,1
DA:142,1
DA:143,1
DA:144,1
DA:145,1
DA:146,1
DA:149,1
DA:150,1
DA:151,1
DA:154,1
DA:155,1
DA:157,1
DA:158,1
DA:159,1
DA:160,1
DA:161,1
DA:164,1
DA:165,1
DA:166,1
DA:167,1
DA:170,1
DA:171,1
DA:172,1
DA:173,1
DA:174,1
DA:175,1
DA:176,1
DA:179,1
DA:180,1
DA:181,1
DA:184,1
DA:185,1
DA:186,1
DA:187,1
DA:188,1
DA:189,1
DA:193,1
DA:196,1
DA:197,1
DA:198,1
DA:201,1
DA:202,1
DA:203,1
DA:204,1
DA:205,1
DA:206,1
DA:209,1
DA:210,1
DA:211,1
DA:214,1
DA:215,1
DA:216,1
DA:217,1
DA:218,1
DA:219,1
DA:222,1
DA:223,1
DA:224,1
DA:227,1
DA:228,1
DA:229,1
DA:230,1
DA:231,1
DA:232,1
DA:235,1
DA:236,1
DA:237,1
DA:240,1
DA:241,1
DA:242,1
DA:243,1
DA:244,1
DA:245,1
DA:248,1
DA:249,1
DA:250,1
DA:253,1
DA:254,1
DA:256,1
DA:257,1
DA:258,1
DA:259,1
DA:260,1
DA:263,1
DA:264,1
DA:265,1
DA:266,1
DA:269,1
DA:270,1
DA:271,1
DA:272,1
DA:273,1
DA:274,1
DA:275,1
DA:278,1
DA:279,1
DA:280,1
DA:283,1
DA:285,1
DA:286,1
DA:287,1
DA:288,1
DA:289,1
DA:290,1
DA:293,1
DA:294,1
DA:295,1
DA:296,1
DA:299,1
DA:301,1
DA:302,1
DA:303,1
DA:304,1
DA:305,1
DA:306,1
DA:309,1
DA:310,1
DA:311,1
DA:312,1
BRF:0
BRH:0
LF:199
LH:199
end_of_record
SF:/home/runner/work/Mcp-Plus-Plus/Mcp-Plus-Plus/tests-rs/src/validators/event_dag.rs
FN:22,_RNvMNtNtCs4N6kI5JLQmX_14mcp_validators10validators9event_dagNtB2_17EventDAGValidator14validate_event
FN:42,_RNvMNtNtCs4N6kI5JLQmX_14mcp_validators10validators9event_dagNtB2_17EventDAGValidator16check_acyclicity
FN:16,_RNvMNtNtCs4N6kI5JLQmX_14mcp_validators10validators9event_dagNtB2_17EventDAGValidator3new
FN:65,_RNvMNtNtCs4N6kI5JLQmX_14mcp_validators10validators9event_dagNtB2_17EventDAGValidator9has_cycle
FN:93,_RNvXs_NtNtCs4N6kI5JLQmX_14mcp_validators10validators9event_dagNtB4_17EventDAGValidatorNtNtCslH02haMvknO_4core7default7Default7default
FN:22,_RNvMNtNtCsjgtEJkoBHnr_14mcp_validators10validators9event_dagNtB2_17EventDAGValidator14validate_event
FN:42,_RNvMNtNtCsjgtEJkoBHnr_14mcp_validators10validators9event_dagNtB2_17EventDAGValidator16check_acyclicity
FN:16,_RNvMNtNtCsjgtEJkoBHnr_14mcp_validators10validators9event_dagNtB2_17EventDAGValidator3new
FN:65,_RNvMNtNtCsjgtEJkoBHnr_14mcp_validators10validators9event_dagNtB2_17EventDAGValidator9has_cycle
FN:93,_RNvXs_NtNtCsjgtEJkoBHnr_14mcp_validators10validators9event_dagNtB4_17EventDAGValidatorNtNtCslH02haMvknO_4core7default7Default7default
FN:104,_RNvNtNtNtCsjgtEJkoBHnr_14mcp_validators10validators9event_dag5testss_16test_valid_event
FN:118,_RNvNtNtNtCsjgtEJkoBHnr_14mcp_validators10validators9event_dag5testss_21test_acyclicity_valid
FN:156,_RNvNtNtNtCsjgtEJkoBHnr_14mcp_validators10validators9event_dag5testss_22test_event_missing_cid
FN:306,_RNvNtNtNtCsjgtEJkoBHnr_14mcp_validators10validators9event_dag5testss_22test_validator_default
FN:228,_RNvNtNtNtCsjgtEJkoBHnr_14mcp_validators10validators9event_dag5testss_26test_acyclicity_with_cycle
FN:182,_RNvNtNtNtCsjgtEJkoBHnr_14mcp_validators10validators9event_dag5testss_26test_event_missing_payload
FN:250,_RNvNtNtNtCsjgtEJkoBHnr_14mcp_validators10validators9event_dag5testss_27test_acyclicity_complex_dag
FN:211,_RNvNtNtNtCsjgtEJkoBHnr_14mcp_validators10validators9event_dag5testss_27test_event_multiple_parents
FN:283,_RNvNtNtNtCsjgtEJkoBHnr_14mcp_validators10validators9event_dag5testss_28test_acyclicity_empty_events
FN:291,_RNvNtNtNtCsjgtEJkoBHnr_14mcp_validators10validators9event_dag5testss_28test_acyclicity_single_event
FN:169,_RNvNtNtNtCsjgtEJkoBHnr_14mcp_validators10validators9event_dag5testss_28test_event_missing_timestamp
FN:141,_RNvNtNtNtCsjgtEJkoBHnr_14mcp_validators10validators9event_dag5testss_29test_event_genesis_no_parents
FN:195,_RNvNtNtNtCsjgtEJkoBHnr_14mcp_validators10validators9event_dag5testss_29test_event_invalid_cid_format
FN:460,_RNvNtNtNtCsjgtEJkoBHnr_14mcp_validators10validators9event_dag5testss_34test_acyclicity_with_shared_parent
FN:424,_RNvNtNtNtCsjgtEJkoBHnr_14mcp_validators10validators9event_dag5testss_36test_acyclicity_deep_recursive_cycle
FN:320,_RNvNtNtNtCsjgtEJkoBHnr_14mcp_validators10validators9event_dag5testss_38test_acyclicity_self_referencing_cycle
FN:395,_RNvNtNtNtCsjgtEJkoBHnr_14mcp_validators10validators9event_dag5testss_41test_acyclicity_rec_stack_contains_parent
FN:337,_RNvNtNtNtCsjgtEJkoBHnr_14mcp_validators10validators9event_dag5testss_41test_acyclicity_unvisited_node_with_cycle
FN:366,_RNvNtNtNtCsjgtEJkoBHnr_14mcp_validators10validators9event_dag5testss_42test_acyclicity_indirect_cycle_three_nodes
FNDA:1,_RNvMNtNtCs4N6kI5JLQmX_14mcp_validators10validators9event_dagNtB2_17EventDAGValidator14validate_event
FNDA:4,_RNvMNtNtCs4N6kI5JLQmX_14mcp_validators10validators9event_dagNtB2_17EventDAGValidator16check_acyclicity
FNDA:5,_RNvMNtNtCs4N6kI5JLQmX_14mcp_validators10validators9event_dagNtB2_17EventDAGValidator3new
FNDA:11,_RNvMNtNtCs4N6kI5JLQmX_14mcp_validators10validators9event_dagNtB2_17EventDAGValidator9has_cycle
FNDA:0,_RNvXs_NtNtCs4N6kI5JLQmX_14mcp_validators10validators9event_dagNtB4_17EventDAGValidatorNtNtCslH02haMvknO_4core7default7Default7default
FNDA:8,_RNvMNtNtCsjgtEJkoBHnr_14mcp_validators10validators9event_dagNtB2_17EventDAGValidator14validate_event
FNDA:11,_RNvMNtNtCsjgtEJkoBHnr_14mcp_validators10validators9event_dagNtB2_17EventDAGValidator16check_acyclicity
FNDA:19,_RNvMNtNtCsjgtEJkoBHnr_14mcp_validators10validators9event_dagNtB2_17EventDAGValidator3new
FNDA:27,_RNvMNtNtCsjgtEJkoBHnr_14mcp_validators10validators9event_dagNtB2_17EventDAGValidator9has_cycle
FNDA:1,_RNvXs_NtNtCsjgtEJkoBHnr_14mcp_validators10validators9event_dagNtB4_17EventDAGValidatorNtNtCslH02haMvknO_4core7default7Default7default
FNDA:1,_RNvNtNtNtCsjgtEJkoBHnr_14mcp_validators10validators9event_dag5testss_16test_valid_event
FNDA:1,_RNvNtNtNtCsjgtEJkoBHnr_14mcp_validators10validators9event_dag5testss_21test_acyclicity_valid
FNDA:1,_RNvNtNtNtCsjgtEJkoBHnr_14mcp_validators10validators9event_dag5testss_22test_event_missing_cid
FNDA:1,_RNvNtNtNtCsjgtEJkoBHnr_14mcp_validators10validators9event_dag5testss_22test_validator_default
FNDA:1,_RNvNtNtNtCsjgtEJkoBHnr_14mcp_validators10validators9event_dag5testss_26test_acyclicity_with_cycle
FNDA:1,_RNvNtNtNtCsjgtEJkoBHnr_14mcp_validators10validators9event_dag5testss_26test_event_missing_payload
FNDA:1,_RNvNtNtNtCsjgtEJkoBHnr_14mcp_validators10validators9event_dag5testss_27test_acyclicity_complex_dag
FNDA:1,_RNvNtNtNtCsjgtEJkoBHnr_14mcp_validators10validators9event_dag5testss_27test_event_multiple_parents
FNDA:1,_RNvNtNtNtCsjgtEJkoBHnr_14mcp_validators10validators9event_dag5testss_28test_acyclicity_empty_events
FNDA:1,_RNvNtNtNtCsjgtEJkoBHnr_14mcp_validators10validators9event_dag5testss_28test_acyclicity_single_event
FNDA:1,_RNvNtNtNtCsjgtEJkoBHnr_14mcp_validators10validators9event_dag5testss_28test_event_missing_timestamp
FNDA:1,_RNvNtNtNtCsjgtEJkoBHnr_14mcp_validators10validators9event_dag5testss_29test_event_genesis_no_parents
FNDA:1,_RNvNtNtNtCsjgtEJkoBHnr_14mcp_validators10validators9event_dag5testss_29test_event_invalid_cid_format
FNDA:1,_RNvNtNtNtCsjgtEJkoBHnr_14mcp_validators10validators9event_dag5testss_34test_acyclicity_with_shared_parent
FNDA:1,_RNvNtNtNtCsjgtEJkoBHnr_14mcp_validators10validators9event_dag5testss_36test_acyclicity_deep_recursive_cycle
FNDA:1,_RNvNtNtNtCsjgtEJkoBHnr_14mcp_validators10validators9event_dag5testss_38test_acyclicity_self_referencing_cycle
FNDA:1,_RNvNtNtNtCsjgtEJkoBHnr_14mcp_validators10validators9event_dag5testss_41test_acyclicity_rec_stack_contains_parent
FNDA:1,_RNvNtNtNtCsjgtEJkoBHnr_14mcp_validators10validators9event_dag5testss_41test_acyclicity_unvisited_node_with_cycle
FNDA:1,_RNvNtNtNtCsjgtEJkoBHnr_14mcp_validators10validators9event_dag5testss_42test_acyclicity_indirect_cycle_three_nodes
FNF:24
FNH:24
DA:16,24
DA:17,24
DA:18,24
DA:22,9
DA:23,9
DA:25,9
DA:27,6
DA:28,1
DA:29,1
DA:30,5
DA:33,5
DA:34,2
DA:35,3
DA:37,5
DA:38,9
DA:42,15
DA:43,15
DA:46,38
DA:47,38
DA:48,38
DA:51,15
DA:52,15
DA:54,26
DA:55,26
DA:56,25
DA:57,8
DA:58,17
DA:59,1
DA:62,7
DA:63,15
DA:65,38
DA:66,38
DA:67,38
DA:68,38
DA:69,38
DA:70,38
DA:71,38
DA:72,38
DA:73,38
DA:75,38
DA:76,38
DA:77,33
DA:78,13
DA:79,12
DA:80,1
DA:81,20
DA:82,8
DA:83,12
DA:85,0
DA:87,18
DA:88,18
DA:89,38
DA:93,1
DA:94,1
DA:95,1
DA:104,1
DA:105,1
DA:106,1
DA:107,1
DA:108,1
DA:109,1
DA:110,1
DA:113,1
DA:114,1
DA:115,1
DA:118,1
DA:119,1
DA:120,1
DA:121,1
DA:122,1
DA:123,1
DA:124,1
DA:125,1
DA:126,1
DA:127,1
DA:128,1
DA:129,1
DA:130,1
DA:131,1
DA:132,1
DA:135,1
DA:136,1
DA:141,1
DA:142,1
DA:143,1
DA:144,1
DA:145,1
DA:146,1
DA:147,1
DA:150,1
DA:151,1
DA:152,1
DA:153,1
DA:156,1
DA:157,1
DA:158,1
DA:159,1
DA:160,1
DA:161,1
DA:164,1
DA:165,1
DA:166,1
DA:169,1
DA:170,1
DA:171,1
DA:172,1
DA:173,1
DA:174,1
DA:177,1
DA:178,1
DA:179,1
DA:182,1
DA:183,1
DA:184,1
DA:185,1
DA:186,1
DA:187,1
DA:190,1
DA:191,1
DA:192,1
DA:195,1
DA:196,1
DA:198,1
DA:199,1
DA:200,1
DA:201,1
DA:202,1
DA:205,1
DA:206,1
DA:207,1
DA:208,1
DA:211,1
DA:212,1
DA:213,1
DA:214,1
DA:215,1
DA:219,1
DA:220,1
DA:223,1
DA:224,1
DA:225,1
DA:228,1
DA:229,1
DA:230,1
DA:231,1
DA:232,1
DA:233,1
DA:234,1
DA:235,1
DA:236,1
DA:237,1
DA:238,1
DA:239,1
DA:240,1
DA:241,1
DA:242,1
DA:245,1
DA:246,1
DA:247,1
DA:250,1
DA:251,1
DA:252,1
DA:253,1
DA:254,1
DA:255,1
DA:256,1
DA:257,1
DA:258,1
DA:259,1
DA:260,1
DA:261,1
DA:262,1
DA:263,1
DA:264,1
DA:265,1
DA:266,1
DA:267,1
DA:268,1
DA:269,1
DA:270,1
DA:271,1
DA:272,1
DA:273,1
DA:274,1
DA:275,1
DA:276,1
DA:279,1
DA:280,1
DA:283,1
DA:284,1
DA:285,1
DA:287,1
DA:288,1
DA:291,1
DA:292,1
DA:293,1
DA:294,1
DA:295,1
DA:296,1
DA:297,1
DA:298,1
DA:299,1
DA:302,1
DA:303,1
DA:306,1
DA:307,1
DA:308,1
DA:309,1
DA:310,1
DA:311,1
DA:312,1
DA:315,1
DA:316,1
DA:317,1
DA:320,1
DA:322,1
DA:323,1
DA:324,1
DA:325,1
DA:326,1
DA:327,1
DA:328,1
DA:329,1
DA:332,1
DA:333,1
DA:334,1
DA:337,1
DA:339,1
DA:340,1
DA:341,1
DA:342,1
DA:343,1
DA:344,1
DA:345,1
DA:346,1
DA:347,1
DA:348,1
DA:349,1
DA:350,1
DA:351,1
DA:352,1
DA:353,1
DA:354,1
DA:355,1
DA:356,1
DA:357,1
DA:358,1
DA:361,1
DA:362,1
DA:363,1
DA:366,1
DA:368,1
DA:369,1
DA:370,1
DA:371,1
DA:372,1
DA:373,1
DA:374,1
DA:375,1
DA:376,1
DA:377,1
DA:378,1
DA:379,1
DA:380,1
DA:381,1
DA:382,1
DA:383,1
DA:384,1
DA:385,1
DA:386,1
DA:387,1
DA:390,1
DA:391,1
DA:392,1
DA:395,1
DA:397,1
DA:398,1
DA:399,1
DA:400,1
DA:401,1
DA:402,1
DA:403,1
DA:404,1
DA:405,1
DA:406,1
DA:407,1
DA:408,1
DA:409,1
DA:410,1
DA:411,1
DA:412,1
DA:413,1
DA:414,1
DA:415,1
DA:416,1
DA:419,1
DA:420,1
DA:421,1
DA:424,1
DA:427,1
DA:428,1
DA:429,1
DA:430,1
DA:431,1
DA:432,1
DA:433,1
DA:434,1
DA:435,1
DA:436,1
DA:437,1
DA:438,1
DA:439,1
DA:440,1
DA:441,1
DA:442,1
DA:443,1
DA:444,1
DA:445,1
DA:446,1
DA:447,1
DA:448,1
DA:449,1
DA:450,1
DA:451,1
DA:452,1
DA:455,1
DA:456,1
DA:457,1
DA:460,1
DA:464,1
DA:465,1
DA:466,1
DA:467,1
DA:468,1
DA:469,1
DA:470,1
DA:471,1
DA:472,1
DA:473,1
DA:474,1
DA:475,1
DA:476,1
DA:477,1
DA:478,1
DA:479,1
DA:480,1
DA:481,1
DA:482,1
DA:483,1
DA:484,1
DA:485,1
DA:486,1
DA:487,1
DA:488,1
DA:489,1
DA:492,1
DA:493,1
DA:494,1
BRF:0
BRH:0
LF:358
LH:357
end_of_record
SF:/home/runner/work/Mcp-Plus-Plus/Mcp-Plus-Plus/tests-rs/src/validators/mcp_idl.rs
FN:49,_RNvMNtNtCs4N6kI5JLQmX_14mcp_validators10validators7mcp_idlNtB2_15MCPIDLValidator19validate_cid_format
FN:27,_RNvMNtNtCs4N6kI5JLQmX_14mcp_validators10validators7mcp_idlNtB2_15MCPIDLValidator29validate_interface_descriptor
FN:21,_RNvMNtNtCs4N6kI5JLQmX_14mcp_validators10validators7mcp_idlNtB2_15MCPIDLValidator3new
FN:55,_RNvXs_NtNtCs4N6kI5JLQmX_14mcp_validators10validators7mcp_idlNtB4_15MCPIDLValidatorNtNtCslH02haMvknO_4core7default7Default7default
FN:49,_RNvMNtNtCsjgtEJkoBHnr_14mcp_validators10validators7mcp_idlNtB2_15MCPIDLValidator19validate_cid_format
FN:27,_RNvMNtNtCsjgtEJkoBHnr_14mcp_validators10validators7mcp_idlNtB2_15MCPIDLValidator29validate_interface_descriptor
FN:21,_RNvMNtNtCsjgtEJkoBHnr_14mcp_validators10validators7mcp_idlNtB2_15MCPIDLValidator3new
FN:55,_RNvXs_NtNtCsjgtEJkoBHnr_14mcp_validators10validators7mcp_idlNtB4_15MCPIDLValidatorNtNtCslH02haMvknO_4core7default7Default7default
FN:220,_RNvNtNtNtCsjgtEJkoBHnr_14mcp_validators10validators7mcp_idl5testss_21test_cid_format_empty
FN:202,_RNvNtNtNtCsjgtEJkoBHnr_14mcp_validators10validators7mcp_idl5testss_22test_cid_format_base32
FN:196,_RNvNtNtNtCsjgtEJkoBHnr_14mcp_validators10validators7mcp_idl5testss_22test_cid_format_base58
FN:226,_RNvNtNtNtCsjgtEJkoBHnr_14mcp_validators10validators7mcp_idl5testss_22test_validator_default
FN:83,_RNvNtNtNtCsjgtEJkoBHnr_14mcp_validators10validators7mcp_idl5testss_24test_validate_cid_format
FN:208,_RNvNtNtNtCsjgtEJkoBHnr_14mcp_validators10validators7mcp_idl5testss_29test_cid_format_invalid_short
FN:214,_RNvNtNtNtCsjgtEJkoBHnr_14mcp_validators10validators7mcp_idl5testss_30test_cid_format_invalid_prefix
FN:66,_RNvNtNtNtCsjgtEJkoBHnr_14mcp_validators10validators7mcp_idl5testss_31test_valid_interface_descriptor
FN:93,_RNvNtNtNtCsjgtEJkoBHnr_14mcp_validators10validators7mcp_idl5testss_34test_interface_descriptor_no_tools
FN:108,_RNvNtNtNtCsjgtEJkoBHnr_14mcp_validators10validators7mcp_idl5testss_37test_interface_descriptor_invalid_cid
FN:157,_RNvNtNtNtCsjgtEJkoBHnr_14mcp_validators10validators7mcp_idl5testss_37test_interface_descriptor_missing_cid
FN:125,_RNvNtNtNtCsjgtEJkoBHnr_14mcp_validators10validators7mcp_idl5testss_38test_interface_descriptor_missing_name
FN:173,_RNvNtNtNtCsjgtEJkoBHnr_14mcp_validators10validators7mcp_idl5testss_40test_interface_descriptor_multiple_tools
FN:141,_RNvNtNtNtCsjgtEJkoBHnr_14mcp_validators10validators7mcp_idl5testss_41test_interface_descriptor_missing_version
FN:232,_RNvNtNtNtCsjgtEJkoBHnr_14mcp_validators10validators7mcp_idl5testss_45test_interface_descriptor_empty_tools_warning
FN:244,_RNCNvNtNtNtCsjgtEJkoBHnr_14mcp_validators10validators7mcp_idl5testss_45test_interface_descriptor_empty_tools_warning0B9_
FNDA:0,_RNvMNtNtCs4N6kI5JLQmX_14mcp_validators10validators7mcp_idlNtB2_15MCPIDLValidator19validate_cid_format
FNDA:1,_RNvMNtNtCs4N6kI5JLQmX_14mcp_validators10validators7mcp_idlNtB2_15MCPIDLValidator29validate_interface_descriptor
FNDA:1,_RNvMNtNtCs4N6kI5JLQmX_14mcp_validators10validators7mcp_idlNtB2_15MCPIDLValidator3new
FNDA:0,_RNvXs_NtNtCs4N6kI5JLQmX_14mcp_validators10validators7mcp_idlNtB4_15MCPIDLValidatorNtNtCslH02haMvknO_4core7default7Default7default
FNDA:9,_RNvMNtNtCsjgtEJkoBHnr_14mcp_validators10validators7mcp_idlNtB2_15MCPIDLValidator19validate_cid_format
FNDA:8,_RNvMNtNtCsjgtEJkoBHnr_14mcp_validators10validators7mcp_idlNtB2_15MCPIDLValidator29validate_interface_descriptor
FNDA:15,_RNvMNtNtCsjgtEJkoBHnr_14mcp_validators10validators7mcp_idlNtB2_15MCPIDLValidator3new
FNDA:1,_RNvXs_NtNtCsjgtEJkoBHnr_14mcp_validators10validators7mcp_idlNtB4_15MCPIDLValidatorNtNtCslH02haMvknO_4core7default7Default7default
FNDA:1,_RNvNtNtNtCsjgtEJkoBHnr_14mcp_validators10validators7mcp_idl5testss_21test_cid_format_empty
FNDA:1,_RNvNtNtNtCsjgtEJkoBHnr_14mcp_validators10validators7mcp_idl5testss_22test_cid_format_base32
FNDA:1,_RNvNtNtNtCsjgtEJkoBHnr_14mcp_validators10validators7mcp_idl5testss_22test_cid_format_base58
FNDA:1,_RNvNtNtNtCsjgtEJkoBHnr_14mcp_validators10validators7mcp_idl5testss_22test_validator_default
FNDA:1,_RNvNtNtNtCsjgtEJkoBHnr_14mcp_validators10validators7mcp_idl5testss_24test_validate_cid_format
FNDA:1,_RNvNtNtNtCsjgtEJkoBHnr_14mcp_validators10validators7mcp_idl5testss_29test_cid_format_invalid_short
FNDA:1,_RNvNtNtNtCsjgtEJkoBHnr_14mcp_validators10validators7mcp_idl5testss_30test_cid_format_invalid_prefix
FNDA:1,_RNvNtNtNtCsjgtEJkoBHnr_14mcp_validators10validators7mcp_idl5testss_31test_valid_interface_descriptor
FNDA:1,_RNvNtNtNtCsjgtEJkoBHnr_14mcp_validators10validators7mcp_idl5testss_34test_interface_descriptor_no_tools
FNDA:1,_RNvNtNtNtCsjgtEJkoBHnr_14mcp_validators10validators7mcp_idl5testss_37test_interface_descriptor_invalid_cid
FNDA:1,_RNvNtNtNtCsjgtEJkoBHnr_14mcp_validators10validators7mcp_idl5testss_37test_interface_descriptor_missing_cid
FNDA:1,_RNvNtNtNtCsjgtEJkoBHnr_14mcp_validators10validators7mcp_idl5testss_38test_interface_descriptor_missing_name
FNDA:1,_RNvNtNtNtCsjgtEJkoBHnr_14mcp_validators10validators7mcp_idl5testss_40test_interface_descriptor_multiple_tools
FNDA:1,_RNvNtNtNtCsjgtEJkoBHnr_14mcp_validators10validators7mcp_idl5testss_41test_interface_descriptor_missing_version
FNDA:1,_RNvNtNtNtCsjgtEJkoBHnr_14mcp_validators10validators7mcp_idl5testss_45test_interface_descriptor_empty_tools_warning
FNDA:1,_RNCNvNtNtNtCsjgtEJkoBHnr_14mcp_validators10validators7mcp_idl5testss_45test_interface_descriptor_empty_tools_warning0B9_
FNF:20
FNH:20
DA:21,16
DA:22,16
DA:23,16
DA:27,9
DA:28,9
DA:29,9
DA:30,9
DA:31,9
DA:33,9
DA:35,6
DA:36,1
DA:37,1
DA:38,5
DA:41,5
DA:42,2
DA:43,3
DA:45,5
DA:46,9
DA:49,9
DA:50,9
DA:51,9
DA:55,1
DA:56,1
DA:57,1
DA:66,1
DA:67,1
DA:68,1
DA:69,1
DA:70,1
DA:71,1
DA:72,1
DA:73,1
DA:75,1
DA:78,1
DA:79,1
DA:80,1
DA:83,1
DA:84,1
DA:85,1
DA:86,1
DA:87,1
DA:88,1
DA:93,1
DA:94,1
DA:95,1
DA:96,1
DA:97,1
DA:98,1
DA:99,1
DA:102,1
DA:103,1
DA:104,1
DA:105,1
DA:108,1
DA:109,1
DA:110,1
DA:111,1
DA:112,1
DA:113,1
DA:114,1
DA:115,1
DA:117,1
DA:120,1
DA:121,1
DA:122,1
DA:125,1
DA:126,1
DA:127,1
DA:128,1
DA:129,1
DA:130,1
DA:131,1
DA:133,1
DA:136,1
DA:137,1
DA:138,1
DA:141,1
DA:142,1
DA:143,1
DA:144,1
DA:145,1
DA:146,1
DA:147,1
DA:149,1
DA:152,1
DA:153,1
DA:154,1
DA:157,1
DA:158,1
DA:159,1
DA:160,1
DA:161,1
DA:162,1
DA:163,1
DA:164,1
DA:168,1
DA:169,1
DA:170,1
DA:173,1
DA:174,1
DA:175,1
DA:176,1
DA:177,1
DA:178,1
DA:180,1
DA:181,1
DA:184,1
DA:185,1
DA:188,1
DA:191,1
DA:192,1
DA:193,1
DA:196,1
DA:197,1
DA:198,1
DA:199,1
DA:202,1
DA:203,1
DA:204,1
DA:205,1
DA:208,1
DA:209,1
DA:210,1
DA:211,1
DA:214,1
DA:215,1
DA:216,1
DA:217,1
DA:220,1
DA:221,1
DA:222,1
DA:223,1
DA:226,1
DA:227,1
DA:228,1
DA:229,1
DA:232,1
DA:234,1
DA:235,1
DA:236,1
DA:237,1
DA:238,1
DA:239,1
DA:242,1
DA:243,1
DA:244,1
DA:245,1
BRF:0
BRH:0
LF:148
LH:148
end_of_record
SF:/home/runner/work/Mcp-Plus-Plus/Mcp-Plus-Plus/tests-rs/src/validators/policy_evaluation.rs
FN:21,_RNvMNtNtCs4N6kI5JLQmX_14mcp_validators10validators17policy_evaluationNtB2_25PolicyEvaluationValidator15validate_policy
FN:41,_RNvMNtNtCs4N6kI5JLQmX_14mcp_validators10validators17policy_evaluationNtB2_25PolicyEvaluationValidator17validate_decision
FN:15,_RNvMNtNtCs4N6kI5JLQmX_14mcp_validators10validators17policy_evaluationNtB2_25PolicyEvaluationValidator3new
FN:69,_RNvXs_NtNtCs4N6kI5JLQmX_14mcp_validators10validators17policy_evaluationNtB4_25PolicyEvaluationValidatorNtNtCslH02haMvknO_4core7default7Default7default
FN:80,_RNvNtNtNtCsjgtEJkoBHnr_14mcp_validators10validators17policy_evaluation5testss_17test_valid_policy
FN:209,_RNvNtNtNtCsjgtEJkoBHnr_14mcp_validators10validators17policy_evaluation5testss_18test_decision_deny
FN:96,_RNvNtNtNtCsjgtEJkoBHnr_14mcp_validators10validators17policy_evaluation5testss_19test_valid_decision
FN:252,_RNvNtNtNtCsjgtEJkoBHnr_14mcp_validators10validators17policy_evaluation5testss_22test_decision_with_cid
FN:264,_RNvNtNtNtCsjgtEJkoBHnr_14mcp_validators10validators17policy_evaluation5testss_22test_validator_default
FN:124,_RNvNtNtNtCsjgtEJkoBHnr_14mcp_validators10validators17policy_evaluation5testss_23test_policy_empty_rules
FN:137,_RNvNtNtNtCsjgtEJkoBHnr_14mcp_validators10validators17policy_evaluation5testss_23test_policy_missing_cid
FN:152,_RNvNtNtNtCsjgtEJkoBHnr_14mcp_validators10validators17policy_evaluation5testss_24test_policy_missing_type
FN:167,_RNvNtNtNtCsjgtEJkoBHnr_14mcp_validators10validators17policy_evaluation5testss_25test_policy_with_temporal
FN:187,_RNvNtNtNtCsjgtEJkoBHnr_14mcp_validators10validators17policy_evaluation5testss_26test_policy_multiple_rules
FN:220,_RNvNtNtNtCsjgtEJkoBHnr_14mcp_validators10validators17policy_evaluation5testss_27test_decision_missing_field
FN:107,_RNvNtNtNtCsjgtEJkoBHnr_14mcp_validators10validators17policy_evaluation5testss_30test_decision_with_obligations
FN:241,_RNvNtNtNtCsjgtEJkoBHnr_14mcp_validators10validators17policy_evaluation5testss_38test_decision_with_obligations_missing
FN:229,_RNvNtNtNtCsjgtEJkoBHnr_14mcp_validators10validators17policy_evaluation5testss_40test_decision_with_obligations_but_empty
FN:288,_RNvNtNtNtCsjgtEJkoBHnr_14mcp_validators10validators17policy_evaluation5testss_48test_decision_allow_with_obligations_empty_array
FN:302,_RNvNtNtNtCsjgtEJkoBHnr_14mcp_validators10validators17policy_evaluation5testss_50test_policy_invalid_cid_triggers_serde_valid_error
FN:320,_RNvNtNtNtCsjgtEJkoBHnr_14mcp_validators10validators17policy_evaluation5testss_52test_decision_invalid_cid_triggers_serde_valid_error
FN:275,_RNvNtNtNtCsjgtEJkoBHnr_14mcp_validators10validators17policy_evaluation5testss_53test_decision_allow_with_obligations_none_obligations
FN:21,_RNvMNtNtCsjgtEJkoBHnr_14mcp_validators10validators17policy_evaluationNtB2_25PolicyEvaluationValidator15validate_policy
FN:41,_RNvMNtNtCsjgtEJkoBHnr_14mcp_validators10validators17policy_evaluationNtB2_25PolicyEvaluationValidator17validate_decision
FN:15,_RNvMNtNtCsjgtEJkoBHnr_14mcp_validators10validators17policy_evaluationNtB2_25PolicyEvaluationValidator3new
FN:69,_RNvXs_NtNtCsjgtEJkoBHnr_14mcp_validators10validators17policy_evaluationNtB4_25PolicyEvaluationValidatorNtNtCslH02haMvknO_4core7default7Default7default
FN:298,_RNCNvNtNtNtCsjgtEJkoBHnr_14mcp_validators10validators17policy_evaluation5testss_48test_decision_allow_with_obligations_empty_array0B9_
FN:284,_RNCNvNtNtNtCsjgtEJkoBHnr_14mcp_validators10validators17policy_evaluation5testss_53test_decision_allow_with_obligations_none_obligations0B9_
FNDA:1,_RNvMNtNtCs4N6kI5JLQmX_14mcp_validators10validators17policy_evaluationNtB2_25PolicyEvaluationValidator15validate_policy
FNDA:2,_RNvMNtNtCs4N6kI5JLQmX_14mcp_validators10validators17policy_evaluationNtB2_25PolicyEvaluationValidator17validate_decision
FNDA:3,_RNvMNtNtCs4N6kI5JLQmX_14mcp_validators10validators17policy_evaluationNtB2_25PolicyEvaluationValidator3new
FNDA:0,_RNvXs_NtNtCs4N6kI5JLQmX_14mcp_validators10validators17policy_evaluationNtB4_25PolicyEvaluationValidatorNtNtCslH02haMvknO_4core7default7Default7default
FNDA:1,_RNvNtNtNtCsjgtEJkoBHnr_14mcp_validators10validators17policy_evaluation5testss_17test_valid_policy
FNDA:1,_RNvNtNtNtCsjgtEJkoBHnr_14mcp_validators10validators17policy_evaluation5testss_18test_decision_deny
FNDA:1,_RNvNtNtNtCsjgtEJkoBHnr_14mcp_validators10validators17policy_evaluation5testss_19test_valid_decision
FNDA:1,_RNvNtNtNtCsjgtEJkoBHnr_14mcp_validators10validators17policy_evaluation5testss_22test_decision_with_cid
FNDA:1,_RNvNtNtNtCsjgtEJkoBHnr_14mcp_validators10validators17policy_evaluation5testss_22test_validator_default
FNDA:1,_RNvNtNtNtCsjgtEJkoBHnr_14mcp_validators10validators17policy_evaluation5testss_23test_policy_empty_rules
FNDA:1,_RNvNtNtNtCsjgtEJkoBHnr_14mcp_validators10validators17policy_evaluation5testss_23test_policy_missing_cid
FNDA:1,_RNvNtNtNtCsjgtEJkoBHnr_14mcp_validators10validators17policy_evaluation5testss_24test_policy_missing_type
FNDA:1,_RNvNtNtNtCsjgtEJkoBHnr_14mcp_validators10validators17policy_evaluation5testss_25test_policy_with_temporal
FNDA:1,_RNvNtNtNtCsjgtEJkoBHnr_14mcp_validators10validators17policy_evaluation5testss_26test_policy_multiple_rules
FNDA:1,_RNvNtNtNtCsjgtEJkoBHnr_14mcp_validators10validators17policy_evaluation5testss_27test_decision_missing_field
FNDA:1,_RNvNtNtNtCsjgtEJkoBHnr_14mcp_validators10validators17policy_evaluation5testss_30test_decision_with_obligations
FNDA:1,_RNvNtNtNtCsjgtEJkoBHnr_14mcp_validators10validators17policy_evaluation5testss_38test_decision_with_obligations_missing
FNDA:1,_RNvNtNtNtCsjgtEJkoBHnr_14mcp_validators10validators17policy_evaluation5testss_40test_decision_with_obligations_but_empty
FNDA:1,_RNvNtNtNtCsjgtEJkoBHnr_14mcp_validators10validators17policy_evaluation5testss_48test_decision_allow_with_obligations_empty_array
FNDA:1,_RNvNtNtNtCsjgtEJkoBHnr_14mcp_validators10validators17policy_evaluation5testss_50test_policy_invalid_cid_triggers_serde_valid_error
FNDA:1,_RNvNtNtNtCsjgtEJkoBHnr_14mcp_validators10validators17policy_evaluation5testss_52test_decision_invalid_cid_triggers_serde_valid_error
FNDA:1,_RNvNtNtNtCsjgtEJkoBHnr_14mcp_validators10validators17policy_evaluation5testss_53test_decision_allow_with_obligations_none_obligations
FNDA:7,_RNvMNtNtCsjgtEJkoBHnr_14mcp_validators10validators17policy_evaluationNtB2_25PolicyEvaluationValidator15validate_policy
FNDA:11,_RNvMNtNtCsjgtEJkoBHnr_14mcp_validators10validators17policy_evaluationNtB2_25PolicyEvaluationValidator17validate_decision
FNDA:18,_RNvMNtNtCsjgtEJkoBHnr_14mcp_validators10validators17policy_evaluationNtB2_25PolicyEvaluationValidator3new
FNDA:1,_RNvXs_NtNtCsjgtEJkoBHnr_14mcp_validators10validators17policy_evaluationNtB4_25PolicyEvaluationValidatorNtNtCslH02haMvknO_4core7default7Default7default
FNDA:1,_RNCNvNtNtNtCsjgtEJkoBHnr_14mcp_validators10validators17policy_evaluation5testss_48test_decision_allow_with_obligations_empty_array0B9_
FNDA:1,_RNCNvNtNtNtCsjgtEJkoBHnr_14mcp_validators10validators17policy_evaluation5testss_53test_decision_allow_with_obligations_none_obligations0B9_
FNF:24
FNH:24
DA:15,21
DA:16,21
DA:17,21
DA:21,8
DA:22,8
DA:24,8
DA:26,6
DA:27,1
DA:28,1
DA:29,5
DA:32,5
DA:33,1
DA:34,4
DA:36,5
DA:37,8
DA:41,13
DA:42,13
DA:43,13
DA:44,13
DA:45,13
DA:47,13
DA:49,12
DA:50,1
DA:51,1
DA:52,11
DA:55,11
DA:56,6
DA:57,4
DA:58,4
DA:59,4
DA:60,4
DA:61,4
DA:62,5
DA:64,11
DA:65,13
DA:69,1
DA:70,1
DA:71,1
DA:80,1
DA:81,1
DA:82,1
DA:83,1
DA:84,1
DA:85,1
DA:86,1
DA:87,1
DA:91,1
DA:92,1
DA:93,1
DA:96,1
DA:97,1
DA:98,1
DA:99,1
DA:102,1
DA:103,1
DA:104,1
DA:107,1
DA:108,1
DA:109,1
DA:110,1
DA:111,1
DA:112,1
DA:113,1
DA:117,1
DA:118,1
DA:119,1
DA:124,1
DA:125,1
DA:126,1
DA:127,1
DA:128,1
DA:129,1
DA:132,1
DA:133,1
DA:134,1
DA:137,1
DA:138,1
DA:139,1
DA:140,1
DA:141,1
DA:142,1
DA:143,1
DA:147,1
DA:148,1
DA:149,1
DA:152,1
DA:153,1
DA:154,1
DA:155,1
DA:156,1
DA:157,1
DA:158,1
DA:162,1
DA:163,1
DA:164,1
DA:167,1
DA:168,1
DA:169,1
DA:170,1
DA:171,1
DA:172,1
DA:173,1
DA:174,1
DA:176,1
DA:177,1
DA:178,1
DA:182,1
DA:183,1
DA:184,1
DA:187,1
DA:188,1
DA:189,1
DA:190,1
DA:191,1
DA:192,1
DA:194,1
DA:195,1
DA:198,1
DA:199,1
DA:204,1
DA:205,1
DA:206,1
DA:209,1
DA:210,1
DA:211,1
DA:212,1
DA:215,1
DA:216,1
DA:217,1
DA:220,1
DA:221,1
DA:222,1
DA:224,1
DA:225,1
DA:226,1
DA:229,1
DA:230,1
DA:231,1
DA:232,1
DA:233,1
DA:236,1
DA:237,1
DA:238,1
DA:241,1
DA:242,1
DA:243,1
DA:244,1
DA:247,1
DA:248,1
DA:249,1
DA:252,1
DA:253,1
DA:254,1
DA:255,1
DA:256,1
DA:259,1
DA:260,1
DA:261,1
DA:264,1
DA:265,1
DA:266,1
DA:267,1
DA:270,1
DA:271,1
DA:272,1
DA:275,1
DA:277,1
DA:278,1
DA:279,1
DA:282,1
DA:283,1
DA:284,1
DA:285,1
DA:288,1
DA:290,1
DA:291,1
DA:292,1
DA:293,1
DA:296,1
DA:297,1
DA:298,1
DA:299,1
DA:302,1
DA:304,1
DA:305,1
DA:306,1
DA:307,1
DA:308,1
DA:309,1
DA:310,1
DA:314,1
DA:315,1
DA:316,1
DA:317,1
DA:320,1
DA:322,1
DA:323,1
DA:324,1
DA:325,1
DA:328,1
DA:329,1
DA:330,1
DA:331,1
BRF:0
BRH:0
LF:205
LH:205
end_of_record
SF:/home/runner/work/Mcp-Plus-Plus/Mcp-Plus-Plus/tests-rs/src/validators/transport.rs
FN:39,_RNvMNtNtCs4N6kI5JLQmX_14mcp_validators10validators9transportNtB2_18TransportValidator16validate_session
FN:21,_RNvMNtNtCs4N6kI5JLQmX_14mcp_validators10validators9transportNtB2_18TransportValidator26validate_transport_message
FN:15,_RNvMNtNtCs4N6kI5JLQmX_14mcp_validators10validators9transportNtB2_18TransportValidator3new
FN:57,_RNvXs_NtNtCs4N6kI5JLQmX_14mcp_validators10validators9transportNtB4_18TransportValidatorNtNtCslH02haMvknO_4core7default7Default7default
FN:81,_RNvNtNtNtCsjgtEJkoBHnr_14mcp_validators10validators9transport5testss_18test_valid_session
FN:216,_RNvNtNtNtCsjgtEJkoBHnr_14mcp_validators10validators9transport5testss_22test_validator_default
FN:170,_RNvNtNtNtCsjgtEJkoBHnr_14mcp_validators10validators9transport5testss_23test_session_missing_id
FN:204,_RNvNtNtNtCsjgtEJkoBHnr_14mcp_validators10validators9transport5testss_24test_session_with_p2p_id
FN:192,_RNvNtNtNtCsjgtEJkoBHnr_14mcp_validators10validators9transport5testss_25test_session_ipv6_address
FN:68,_RNvNtNtNtCsjgtEJkoBHnr_14mcp_validators10validators9transport5testss_28test_valid_transport_message
FN:181,_RNvNtNtNtCsjgtEJkoBHnr_14mcp_validators10validators9transport5testss_30test_session_missing_peer_addr
FN:244,_RNvNtNtNtCsjgtEJkoBHnr_14mcp_validators10validators9transport5testss_34test_transport_message_length_zero
FN:108,_RNvNtNtNtCsjgtEJkoBHnr_14mcp_validators10validators9transport5testss_34test_transport_message_zero_length
FN:157,_RNvNtNtNtCsjgtEJkoBHnr_14mcp_validators10validators9transport5testss_35test_transport_message_large_length
FN:133,_RNvNtNtNtCsjgtEJkoBHnr_14mcp_validators10validators9transport5testss_37test_transport_message_missing_length
FN:145,_RNvNtNtNtCsjgtEJkoBHnr_14mcp_validators10validators9transport5testss_38test_transport_message_missing_payload
FN:95,_RNvNtNtNtCsjgtEJkoBHnr_14mcp_validators10validators9transport5testss_42test_transport_message_invalid_protocol_id
FN:121,_RNvNtNtNtCsjgtEJkoBHnr_14mcp_validators10validators9transport5testss_42test_transport_message_missing_protocol_id
FN:228,_RNvNtNtNtCsjgtEJkoBHnr_14mcp_validators10validators9transport5testss_49test_transport_message_invalid_protocol_id_prefix
FN:260,_RNvNtNtNtCsjgtEJkoBHnr_14mcp_validators10validators9transport5testss_56test_session_empty_session_id_triggers_serde_valid_error
FN:39,_RNvMNtNtCsjgtEJkoBHnr_14mcp_validators10validators9transportNtB2_18TransportValidator16validate_session
FN:21,_RNvMNtNtCsjgtEJkoBHnr_14mcp_validators10validators9transportNtB2_18TransportValidator26validate_transport_message
FN:15,_RNvMNtNtCsjgtEJkoBHnr_14mcp_validators10validators9transportNtB2_18TransportValidator3new
FN:57,_RNvXs_NtNtCsjgtEJkoBHnr_14mcp_validators10validators9transportNtB4_18TransportValidatorNtNtCslH02haMvknO_4core7default7Default7default
FNDA:1,_RNvMNtNtCs4N6kI5JLQmX_14mcp_validators10validators9transportNtB2_18TransportValidator16validate_session
FNDA:1,_RNvMNtNtCs4N6kI5JLQmX_14mcp_validators10validators9transportNtB2_18TransportValidator26validate_transport_message
FNDA:2,_RNvMNtNtCs4N6kI5JLQmX_14mcp_validators10validators9transportNtB2_18TransportValidator3new
FNDA:0,_RNvXs_NtNtCs4N6kI5JLQmX_14mcp_validators10validators9transportNtB4_18TransportValidatorNtNtCslH02haMvknO_4core7default7Default7default
FNDA:1,_RNvNtNtNtCsjgtEJkoBHnr_14mcp_validators10validators9transport5testss_18test_valid_session
FNDA:1,_RNvNtNtNtCsjgtEJkoBHnr_14mcp_validators10validators9transport5testss_22test_validator_default
FNDA:1,_RNvNtNtNtCsjgtEJkoBHnr_14mcp_validators10validators9transport5testss_23test_session_missing_id
FNDA:1,_RNvNtNtNtCsjgtEJkoBHnr_14mcp_validators10validators9transport5testss_24test_session_with_p2p_id
FNDA:1,_RNvNtNtNtCsjgtEJkoBHnr_14mcp_validators10validators9transport5testss_25test_session_ipv6_address
FNDA:1,_RNvNtNtNtCsjgtEJkoBHnr_14mcp_validators10validators9transport5testss_28test_valid_transport_message
FNDA:1,_RNvNtNtNtCsjgtEJkoBHnr_14mcp_validators10validators9transport5testss_30test_session_missing_peer_addr
FNDA:1,_RNvNtNtNtCsjgtEJkoBHnr_14mcp_validators10validators9transport5testss_34test_transport_message_length_zero
FNDA:1,_RNvNtNtNtCsjgtEJkoBHnr_14mcp_validators10validators9transport5testss_34test_transport_message_zero_length
FNDA:1,_RNvNtNtNtCsjgtEJkoBHnr_14mcp_validators10validators9transport5testss_35test_transport_message_large_length
FNDA:1,_RNvNtNtNtCsjgtEJkoBHnr_14mcp_validators10validators9transport5testss_37test_transport_message_missing_length
FNDA:1,_RNvNtNtNtCsjgtEJkoBHnr_14mcp_validators10validators9transport5testss_38test_transport_message_missing_payload
FNDA:1,_RNvNtNtNtCsjgtEJkoBHnr_14mcp_validators10validators9transport5testss_42test_transport_message_invalid_protocol_id
FNDA:1,_RNvNtNtNtCsjgtEJkoBHnr_14mcp_validators10validators9transport5testss_42test_transport_message_missing_protocol_id
FNDA:1,_RNvNtNtNtCsjgtEJkoBHnr_14mcp_validators10validators9transport5testss_49test_transport_message_invalid_protocol_id_prefix
FNDA:1,_RNvNtNtNtCsjgtEJkoBHnr_14mcp_validators10validators9transport5testss_56test_session_empty_session_id_triggers_serde_valid_error
FNDA:7,_RNvMNtNtCsjgtEJkoBHnr_14mcp_validators10validators9transportNtB2_18TransportValidator16validate_session
FNDA:9,_RNvMNtNtCsjgtEJkoBHnr_14mcp_validators10validators9transportNtB2_18TransportValidator26validate_transport_message
FNDA:16,_RNvMNtNtCsjgtEJkoBHnr_14mcp_validators10validators9transportNtB2_18TransportValidator3new
FNDA:1,_RNvXs_NtNtCsjgtEJkoBHnr_14mcp_validators10validators9transportNtB4_18TransportValidatorNtNtCslH02haMvknO_4core7default7Default7default
FNF:20
FNH:20
DA:15,18
DA:16,18
DA:17,18
DA:21,10
DA:22,10
DA:23,10
DA:24,10
DA:25,10
DA:27,10
DA:29,7
DA:30,4
DA:31,4
DA:32,3
DA:34,3
DA:35,10
DA:39,8
DA:40,8
DA:41,8
DA:42,8
DA:43,8
DA:45,8
DA:47,6
DA:48,1
DA:49,1
DA:50,5
DA:52,5
DA:53,8
DA:57,1
DA:58,1
DA:59,1
DA:68,1
DA:69,1
DA:70,1
DA:71,1
DA:72,1
DA:73,1
DA:76,1
DA:77,1
DA:78,1
DA:81,1
DA:82,1
DA:83,1
DA:84,1
DA:85,1
DA:88,1
DA:89,1
DA:90,1
DA:95,1
DA:96,1
DA:97,1
DA:98,1
DA:99,1
DA:100,1
DA:103,1
DA:104,1
DA:105,1
DA:108,1
DA:109,1
DA:110,1
DA:111,1
DA:112,1
DA:113,1
DA:116,1
DA:117,1
DA:118,1
DA:121,1
DA:122,1
DA:123,1
DA:124,1
DA:125,1
DA:128,1
DA:129,1
DA:130,1
DA:133,1
DA:134,1
DA:135,1
DA:136,1
DA:137,1
DA:140,1
DA:141,1
DA:142,1
DA:145,1
DA:146,1
DA:147,1
DA:148,1
DA:149,1
DA:152,1
DA:153,1
DA:154,1
DA:157,1
DA:158,1
DA:159,1
DA:160,1
DA:161,1
DA:162,1
DA:165,1
DA:166,1
DA:167,1
DA:170,1
DA:171,1
DA:172,1
DA:173,1
DA:176,1
DA:177,1
DA:178,1
DA:181,1
DA:182,1
DA:183,1
DA:184,1
DA:187,1
DA:188,1
DA:189,1
DA:192,1
DA:193,1
DA:194,1
DA:195,1
DA:196,1
DA:199,1
DA:200,1
DA:201,1
DA:204,1
DA:205,1
DA:206,1
DA:207,1
DA:208,1
DA:211,1
DA:212,1
DA:213,1
DA:216,1
DA:217,1
DA:218,1
DA:219,1
DA:220,1
DA:223,1
DA:224,1
DA:225,1
DA:228,1
DA:230,1
DA:231,1
DA:232,1
DA:233,1
DA:234,1
DA:237,1
DA:238,1
DA:240,1
DA:241,1
DA:244,1
DA:246,1
DA:247,1
DA:248,1
DA:249,1
DA:250,1
DA:253,1
DA:254,1
DA:256,1
DA:257,1
DA:260,1
DA:262,1
DA:263,1
DA:264,1
DA:265,1
DA:268,1
DA:269,1
DA:270,1
DA:271,1
BRF:0
BRH:0
LF:165
LH:165
end_of_record
SF:/home/runner/work/Mcp-Plus-Plus/Mcp-Plus-Plus/tests-rs/src/validators/ucan_delegation.rs
FN:21,_RNvMNtNtCs4N6kI5JLQmX_14mcp_validators10validators15ucan_delegationNtB2_23UCANDelegationValidator19validate_ucan_token
FN:44,_RNvMNtNtCs4N6kI5JLQmX_14mcp_validators10validators15ucan_delegationNtB2_23UCANDelegationValidator25validate_delegation_chain
FN:15,_RNvMNtNtCs4N6kI5JLQmX_14mcp_validators10validators15ucan_delegationNtB2_23UCANDelegationValidator3new
FN:69,_RNvXs_NtNtCs4N6kI5JLQmX_14mcp_validators10validators15ucan_delegationNtB4_23UCANDelegationValidatorNtNtCslH02haMvknO_4core7default7Default7default
FN:80,_RNvNtNtNtCsjgtEJkoBHnr_14mcp_validators10validators15ucan_delegation5testss_21test_valid_ucan_token
FN:326,_RNvNtNtNtCsjgtEJkoBHnr_14mcp_validators10validators15ucan_delegation5testss_22test_validator_default
FN:237,_RNvNtNtNtCsjgtEJkoBHnr_14mcp_validators10validators15ucan_delegation5testss_26test_ucan_token_with_proof
FN:97,_RNvNtNtNtCsjgtEJkoBHnr_14mcp_validators10validators15ucan_delegation5testss_27test_valid_delegation_chain
FN:118,_RNvNtNtNtCsjgtEJkoBHnr_14mcp_validators10validators15ucan_delegation5testss_30test_ucan_token_invalid_issuer
FN:198,_RNvNtNtNtCsjgtEJkoBHnr_14mcp_validators10validators15ucan_delegation5testss_30test_ucan_token_missing_expiry
FN:166,_RNvNtNtNtCsjgtEJkoBHnr_14mcp_validators10validators15ucan_delegation5testss_30test_ucan_token_missing_issuer
FN:135,_RNvNtNtNtCsjgtEJkoBHnr_14mcp_validators10validators15ucan_delegation5testss_32test_ucan_token_invalid_audience
FN:182,_RNvNtNtNtCsjgtEJkoBHnr_14mcp_validators10validators15ucan_delegation5testss_32test_ucan_token_missing_audience
FN:285,_RNvNtNtNtCsjgtEJkoBHnr_14mcp_validators10validators15ucan_delegation5testss_34test_delegation_chain_single_token
FN:152,_RNvNtNtNtCsjgtEJkoBHnr_14mcp_validators10validators15ucan_delegation5testss_34test_ucan_token_empty_attenuations
FN:255,_RNvNtNtNtCsjgtEJkoBHnr_14mcp_validators10validators15ucan_delegation5testss_37test_delegation_chain_multiple_tokens
FN:214,_RNvNtNtNtCsjgtEJkoBHnr_14mcp_validators10validators15ucan_delegation5testss_37test_ucan_token_multiple_attenuations
FN:363,_RNvNtNtNtCsjgtEJkoBHnr_14mcp_validators10validators15ucan_delegation5testss_41test_ucan_token_aud_not_starting_with_did
FN:343,_RNvNtNtNtCsjgtEJkoBHnr_14mcp_validators10validators15ucan_delegation5testss_41test_ucan_token_iss_not_starting_with_did
FN:304,_RNvNtNtNtCsjgtEJkoBHnr_14mcp_validators10validators15ucan_delegation5testss_42test_delegation_chain_with_validated_token
FN:383,_RNvNtNtNtCsjgtEJkoBHnr_14mcp_validators10validators15ucan_delegation5testss_45test_delegation_chain_multiple_invalid_tokens
FN:414,_RNvNtNtNtCsjgtEJkoBHnr_14mcp_validators10validators15ucan_delegation5testss_60test_delegation_chain_empty_chain_triggers_serde_valid_error
FN:21,_RNvMNtNtCsjgtEJkoBHnr_14mcp_validators10validators15ucan_delegationNtB2_23UCANDelegationValidator19validate_ucan_token
FN:44,_RNvMNtNtCsjgtEJkoBHnr_14mcp_validators10validators15ucan_delegationNtB2_23UCANDelegationValidator25validate_delegation_chain
FN:15,_RNvMNtNtCsjgtEJkoBHnr_14mcp_validators10validators15ucan_delegationNtB2_23UCANDelegationValidator3new
FN:69,_RNvXs_NtNtCsjgtEJkoBHnr_14mcp_validators10validators15ucan_delegationNtB4_23UCANDelegationValidatorNtNtCslH02haMvknO_4core7default7Default7default
FNDA:1,_RNvMNtNtCs4N6kI5JLQmX_14mcp_validators10validators15ucan_delegationNtB2_23UCANDelegationValidator19validate_ucan_token
FNDA:1,_RNvMNtNtCs4N6kI5JLQmX_14mcp_validators10validators15ucan_delegationNtB2_23UCANDelegationValidator25validate_delegation_chain
FNDA:2,_RNvMNtNtCs4N6kI5JLQmX_14mcp_validators10validators15ucan_delegationNtB2_23UCANDelegationValidator3new
FNDA:0,_RNvXs_NtNtCs4N6kI5JLQmX_14mcp_validators10validators15ucan_delegationNtB4_23UCANDelegationValidatorNtNtCslH02haMvknO_4core7default7Default7default
FNDA:1,_RNvNtNtNtCsjgtEJkoBHnr_14mcp_validators10validators15ucan_delegation5testss_21test_valid_ucan_token
FNDA:1,_RNvNtNtNtCsjgtEJkoBHnr_14mcp_validators10validators15ucan_delegation5testss_22test_validator_default
FNDA:1,_RNvNtNtNtCsjgtEJkoBHnr_14mcp_validators10validators15ucan_delegation5testss_26test_ucan_token_with_proof
FNDA:1,_RNvNtNtNtCsjgtEJkoBHnr_14mcp_validators10validators15ucan_delegation5testss_27test_valid_delegation_chain
FNDA:1,_RNvNtNtNtCsjgtEJkoBHnr_14mcp_validators10validators15ucan_delegation5testss_30test_ucan_token_invalid_issuer
FNDA:1,_RNvNtNtNtCsjgtEJkoBHnr_14mcp_validators10validators15ucan_delegation5testss_30test_ucan_token_missing_expiry
FNDA:1,_RNvNtNtNtCsjgtEJkoBHnr_14mcp_validators10validators15ucan_delegation5testss_30test_ucan_token_missing_issuer
FNDA:1,_RNvNtNtNtCsjgtEJkoBHnr_14mcp_validators10validators15ucan_delegation5testss_32test_ucan_token_invalid_audience
FNDA:1,_RNvNtNtNtCsjgtEJkoBHnr_14mcp_validators10validators15ucan_delegation5testss_32test_ucan_token_missing_audience
FNDA:1,_RNvNtNtNtCsjgtEJkoBHnr_14mcp_validators10validators15ucan_delegation5testss_34test_delegation_chain_single_token
FNDA:1,_RNvNtNtNtCsjgtEJkoBHnr_14mcp_validators10validators15ucan_delegation5testss_34test_ucan_token_empty_attenuations
FNDA:1,_RNvNtNtNtCsjgtEJkoBHnr_14mcp_validators10validators15ucan_delegation5testss_37test_delegation_chain_multiple_tokens
FNDA:1,_RNvNtNtNtCsjgtEJkoBHnr_14mcp_validators10validators15ucan_delegation5testss_37test_ucan_token_multiple_attenuations
FNDA:1,_RNvNtNtNtCsjgtEJkoBHnr_14mcp_validators10validators15ucan_delegation5testss_41test_ucan_token_aud_not_starting_with_did
FNDA:1,_RNvNtNtNtCsjgtEJkoBHnr_14mcp_validators10validators15ucan_delegation5testss_41test_ucan_token_iss_not_starting_with_did
FNDA:1,_RNvNtNtNtCsjgtEJkoBHnr_14mcp_validators10validators15ucan_delegation5testss_42test_delegation_chain_with_validated_token
FNDA:1,_RNvNtNtNtCsjgtEJkoBHnr_14mcp_validators10validators15ucan_delegation5testss_45test_delegation_chain_multiple_invalid_tokens
FNDA:1,_RNvNtNtNtCsjgtEJkoBHnr_14mcp_validators10validators15ucan_delegation5testss_60test_delegation_chain_empty_chain_triggers_serde_valid_error
FNDA:12,_RNvMNtNtCsjgtEJkoBHnr_14mcp_validators10validators15ucan_delegationNtB2_23UCANDelegationValidator19validate_ucan_token
FNDA:6,_RNvMNtNtCsjgtEJkoBHnr_14mcp_validators10validators15ucan_delegationNtB2_23UCANDelegationValidator25validate_delegation_chain
FNDA:18,_RNvMNtNtCsjgtEJkoBHnr_14mcp_validators10validators15ucan_delegationNtB2_23UCANDelegationValidator3new
FNDA:1,_RNvXs_NtNtCsjgtEJkoBHnr_14mcp_validators10validators15ucan_delegationNtB4_23UCANDelegationValidatorNtNtCslH02haMvknO_4core7default7Default7default
FNF:22
FNH:22
DA:15,20
DA:16,20
DA:17,20
DA:21,13
DA:22,13
DA:23,13
DA:24,13
DA:25,13
DA:27,13
DA:29,10
DA:30,4
DA:31,4
DA:32,6
DA:35,6
DA:36,1
DA:37,5
DA:39,6
DA:40,13
DA:44,7
DA:45,7
DA:46,7
DA:47,7
DA:48,7
DA:50,7
DA:52,7
DA:53,1
DA:54,1
DA:55,6
DA:58,8
DA:59,8
DA:60,2
DA:61,6
DA:64,6
DA:65,7
DA:69,1
DA:70,1
DA:71,1
DA:80,1
DA:81,1
DA:82,1
DA:83,1
DA:84,1
DA:85,1
DA:86,1
DA:87,1
DA:89,1
DA:92,1
DA:93,1
DA:94,1
DA:97,1
DA:98,1
DA:99,1
DA:100,1
DA:101,1
DA:102,1
DA:103,1
DA:104,1
DA:105,1
DA:107,1
DA:111,1
DA:112,1
DA:113,1
DA:118,1
DA:119,1
DA:120,1
DA:121,1
DA:122,1
DA:123,1
DA:124,1
DA:125,1
DA:127,1
DA:130,1
DA:131,1
DA:132,1
DA:135,1
DA:136,1
DA:137,1
DA:138,1
DA:139,1
DA:140,1
DA:141,1
DA:142,1
DA:144,1
DA:147,1
DA:148,1
DA:149,1
DA:152,1
DA:153,1
DA:154,1
DA:155,1
DA:156,1
DA:157,1
DA:158,1
DA:161,1
DA:162,1
DA:163,1
DA:166,1
DA:167,1
DA:168,1
DA:169,1
DA:170,1
DA:171,1
DA:172,1
DA:174,1
DA:177,1
DA:178,1
DA:179,1
DA:182,1
DA:183,1
DA:184,1
DA:185,1
DA:186,1
DA:187,1
DA:188,1
DA:190,1
DA:193,1
DA:194,1
DA:195,1
DA:198,1
DA:199,1
DA:200,1
DA:201,1
DA:202,1
DA:203,1
DA:204,1
DA:205,1
DA:209,1
DA:210,1
DA:211,1
DA:214,1
DA:215,1
DA:216,1
DA:217,1
DA:218,1
DA:219,1
DA:221,1
DA:222,1
DA:225,1
DA:226,1
DA:229,1
DA:232,1
DA:233,1
DA:234,1
DA:237,1
DA:238,1
DA:239,1
DA:240,1
DA:241,1
DA:242,1
DA:243,1
DA:244,1
DA:246,1
DA:247,1
DA:250,1
DA:251,1
DA:252,1
DA:255,1
DA:256,1
DA:257,1
DA:258,1
DA:260,1
DA:261,1
DA:262,1
DA:263,1
DA:264,1
DA:266,1
DA:269,1
DA:270,1
DA:271,1
DA:272,1
DA:273,1
DA:275,1
DA:280,1
DA:281,1
DA:282,1
DA:285,1
DA:286,1
DA:287,1
DA:288,1
DA:289,1
DA:290,1
DA:291,1
DA:292,1
DA:293,1
DA:295,1
DA:299,1
DA:300,1
DA:301,1
DA:304,1
DA:308,1
DA:309,1
DA:310,1
DA:311,1
DA:312,1
DA:313,1
DA:314,1
DA:315,1
DA:317,1
DA:321,1
DA:322,1
DA:323,1
DA:326,1
DA:327,1
DA:328,1
DA:329,1
DA:330,1
DA:331,1
DA:332,1
DA:333,1
DA:335,1
DA:338,1
DA:339,1
DA:340,1
DA:343,1
DA:345,1
DA:346,1
DA:347,1
DA:348,1
DA:349,1
DA:350,1
DA:351,1
DA:353,1
DA:356,1
DA:357,1
DA:359,1
DA:360,1
DA:363,1
DA:365,1
DA:366,1
DA:367,1
DA:368,1
DA:369,1
DA:370,1
DA:371,1
DA:373,1
DA:376,1
DA:377,1
DA:379,1
DA:380,1
DA:383,1
DA:385,1
DA:386,1
DA:387,1
DA:389,1
DA:390,1
DA:391,1
DA:392,1
DA:393,1
DA:395,1
DA:398,1
DA:399,1
DA:400,1
DA:401,1
DA:402,1
DA:404,1
DA:409,1
DA:410,1
DA:411,1
DA:414,1
DA:416,1
DA:417,1
DA:418,1
DA:421,1
DA:422,1
DA:423,1
DA:424,1
BRF:0
BRH:0
LF:266
LH:266
end_of_record