SF:/home/runner/work/Mcp-Plus-Plus/Mcp-Plus-Plus/tests-rs/src/validators/base_mcp.rs
FN:58,_RNvMNtNtCs4N6kI5JLQmX_14mcp_validators10validators8base_mcpNtB2_16ValidationResult11add_warning
FN:44,_RNvMNtNtCs4N6kI5JLQmX_14mcp_validators10validators8base_mcpNtB2_16ValidationResult3new
FN:53,_RNvMNtNtCs4N6kI5JLQmX_14mcp_validators10validators8base_mcpNtB2_16ValidationResult9add_error
FN:270,_RNvMs0_NtNtCs4N6kI5JLQmX_14mcp_validators10validators8base_mcpNtB5_12MCPValidator10is_request
FN:281,_RNvMs0_NtNtCs4N6kI5JLQmX_14mcp_validators10validators8base_mcpNtB5_12MCPValidator11is_response
FN:287,_RNvMs0_NtNtCs4N6kI5JLQmX_14mcp_validators10validators8base_mcpNtB5_12MCPValidator15is_notification
FN:119,_RNvMs0_NtNtCs4N6kI5JLQmX_14mcp_validators10validators8base_mcpNtB5_12MCPValidator16validate_request
FN:178,_RNvMs0_NtNtCs4N6kI5JLQmX_14mcp_validators10validators8base_mcpNtB5_12MCPValidator17validate_response
FN:210,_RNvMs0_NtNtCs4N6kI5JLQmX_14mcp_validators10validators8base_mcpNtB5_12MCPValidator21validate_notification
FN:243,_RNvMs0_NtNtCs4N6kI5JLQmX_14mcp_validators10validators8base_mcpNtB5_12MCPValidator25validate_tool_call_params
FN:234,_RNvMs0_NtNtCs4N6kI5JLQmX_14mcp_validators10validators8base_mcpNtB5_12MCPValidator26validate_initialize_params
FN:261,_RNvMs0_NtNtCs4N6kI5JLQmX_14mcp_validators10validators8base_mcpNtB5_12MCPValidator26validate_prompt_get_params
FN:252,_RNvMs0_NtNtCs4N6kI5JLQmX_14mcp_validators10validators8base_mcpNtB5_12MCPValidator29validate_resource_read_params
FN:79,_RNvMs0_NtNtCs4N6kI5JLQmX_14mcp_validators10validators8base_mcpNtB5_12MCPValidator3new
FN:72,_RNvXs_NtNtCs4N6kI5JLQmX_14mcp_validators10validators8base_mcpNtB4_12MCPValidatorNtNtCslH02haMvknO_4core7default7Default7default
FN:247,_RNCNvMs0_NtNtCs4N6kI5JLQmX_14mcp_validators10validators8base_mcpNtB7_12MCPValidator25validate_tool_call_params0Bb_
FN:238,_RNCNvMs0_NtNtCs4N6kI5JLQmX_14mcp_validators10validators8base_mcpNtB7_12MCPValidator26validate_initialize_params0Bb_
FN:265,_RNCNvMs0_NtNtCs4N6kI5JLQmX_14mcp_validators10validators8base_mcpNtB7_12MCPValidator26validate_prompt_get_params0Bb_
FN:256,_RNCNvMs0_NtNtCs4N6kI5JLQmX_14mcp_validators10validators8base_mcpNtB7_12MCPValidator29validate_resource_read_params0Bb_
FN:339,_RNvNtNtNtCsjgtEJkoBHnr_14mcp_validators10validators8base_mcp5testss_15test_is_request
FN:348,_RNvNtNtNtCsjgtEJkoBHnr_14mcp_validators10validators8base_mcp5testss_16test_is_response
FN:298,_RNvNtNtNtCsjgtEJkoBHnr_14mcp_validators10validators8base_mcp5testss_18test_valid_request
FN:326,_RNvNtNtNtCsjgtEJkoBHnr_14mcp_validators10validators8base_mcp5testss_19test_valid_response
FN:357,_RNvNtNtNtCsjgtEJkoBHnr_14mcp_validators10validators8base_mcp5testss_20test_is_notification
FN:312,_RNvNtNtNtCsjgtEJkoBHnr_14mcp_validators10validators8base_mcp5testss_28test_invalid_jsonrpc_version
FN:210,_RNvMs0_NtNtCsjgtEJkoBHnr_14mcp_validators10validators8base_mcpNtB5_12MCPValidator21validate_notification
FN:72,_RNvXs_NtNtCsjgtEJkoBHnr_14mcp_validators10validators8base_mcpNtB4_12MCPValidatorNtNtCslH02haMvknO_4core7default7Default7default
FN:247,_RNCNvMs0_NtNtCsjgtEJkoBHnr_14mcp_validators10validators8base_mcpNtB7_12MCPValidator25validate_tool_call_params0Bb_
FN:238,_RNCNvMs0_NtNtCsjgtEJkoBHnr_14mcp_validators10validators8base_mcpNtB7_12MCPValidator26validate_initialize_params0Bb_
FN:265,_RNCNvMs0_NtNtCsjgtEJkoBHnr_14mcp_validators10validators8base_mcpNtB7_12MCPValidator26validate_prompt_get_params0Bb_
FN:256,_RNCNvMs0_NtNtCsjgtEJkoBHnr_14mcp_validators10validators8base_mcpNtB7_12MCPValidator29validate_resource_read_params0Bb_
FN:58,_RNvMNtNtCsjgtEJkoBHnr_14mcp_validators10validators8base_mcpNtB2_16ValidationResult11add_warning
FN:44,_RNvMNtNtCsjgtEJkoBHnr_14mcp_validators10validators8base_mcpNtB2_16ValidationResult3new
FN:53,_RNvMNtNtCsjgtEJkoBHnr_14mcp_validators10validators8base_mcpNtB2_16ValidationResult9add_error
FN:270,_RNvMs0_NtNtCsjgtEJkoBHnr_14mcp_validators10validators8base_mcpNtB5_12MCPValidator10is_request
FN:281,_RNvMs0_NtNtCsjgtEJkoBHnr_14mcp_validators10validators8base_mcpNtB5_12MCPValidator11is_response
FN:287,_RNvMs0_NtNtCsjgtEJkoBHnr_14mcp_validators10validators8base_mcpNtB5_12MCPValidator15is_notification
FN:119,_RNvMs0_NtNtCsjgtEJkoBHnr_14mcp_validators10validators8base_mcpNtB5_12MCPValidator16validate_request
FN:178,_RNvMs0_NtNtCsjgtEJkoBHnr_14mcp_validators10validators8base_mcpNtB5_12MCPValidator17validate_response
FN:243,_RNvMs0_NtNtCsjgtEJkoBHnr_14mcp_validators10validators8base_mcpNtB5_12MCPValidator25validate_tool_call_params
FN:234,_RNvMs0_NtNtCsjgtEJkoBHnr_14mcp_validators10validators8base_mcpNtB5_12MCPValidator26validate_initialize_params
FN:261,_RNvMs0_NtNtCsjgtEJkoBHnr_14mcp_validators10validators8base_mcpNtB5_12MCPValidator26validate_prompt_get_params
FN:252,_RNvMs0_NtNtCsjgtEJkoBHnr_14mcp_validators10validators8base_mcpNtB5_12MCPValidator29validate_resource_read_params
FN:79,_RNvMs0_NtNtCsjgtEJkoBHnr_14mcp_validators10validators8base_mcpNtB5_12MCPValidator3new
FNDA:0,_RNvMNtNtCs4N6kI5JLQmX_14mcp_validators10validators8base_mcpNtB2_16ValidationResult11add_warning
FNDA:14,_RNvMNtNtCs4N6kI5JLQmX_14mcp_validators10validators8base_mcpNtB2_16ValidationResult3new
FNDA:0,_RNvMNtNtCs4N6kI5JLQmX_14mcp_validators10validators8base_mcpNtB2_16ValidationResult9add_error
FNDA:0,_RNvMs0_NtNtCs4N6kI5JLQmX_14mcp_validators10validators8base_mcpNtB5_12MCPValidator10is_request
FNDA:0,_RNvMs0_NtNtCs4N6kI5JLQmX_14mcp_validators10validators8base_mcpNtB5_12MCPValidator11is_response
FNDA:0,_RNvMs0_NtNtCs4N6kI5JLQmX_14mcp_validators10validators8base_mcpNtB5_12MCPValidator15is_notification
FNDA:1,_RNvMs0_NtNtCs4N6kI5JLQmX_14mcp_validators10validators8base_mcpNtB5_12MCPValidator16validate_request
FNDA:1,_RNvMs0_NtNtCs4N6kI5JLQmX_14mcp_validators10validators8base_mcpNtB5_12MCPValidator17validate_response
FNDA:1,_RNvMs0_NtNtCs4N6kI5JLQmX_14mcp_validators10validators8base_mcpNtB5_12MCPValidator21validate_notification
FNDA:0,_RNvMs0_NtNtCs4N6kI5JLQmX_14mcp_validators10validators8base_mcpNtB5_12MCPValidator25validate_tool_call_params
FNDA:0,_RNvMs0_NtNtCs4N6kI5JLQmX_14mcp_validators10validators8base_mcpNtB5_12MCPValidator26validate_initialize_params
FNDA:0,_RNvMs0_NtNtCs4N6kI5JLQmX_14mcp_validators10validators8base_mcpNtB5_12MCPValidator26validate_prompt_get_params
FNDA:0,_RNvMs0_NtNtCs4N6kI5JLQmX_14mcp_validators10validators8base_mcpNtB5_12MCPValidator29validate_resource_read_params
FNDA:3,_RNvMs0_NtNtCs4N6kI5JLQmX_14mcp_validators10validators8base_mcpNtB5_12MCPValidator3new
FNDA:0,_RNvXs_NtNtCs4N6kI5JLQmX_14mcp_validators10validators8base_mcpNtB4_12MCPValidatorNtNtCslH02haMvknO_4core7default7Default7default
FNDA:0,_RNCNvMs0_NtNtCs4N6kI5JLQmX_14mcp_validators10validators8base_mcpNtB7_12MCPValidator25validate_tool_call_params0Bb_
FNDA:0,_RNCNvMs0_NtNtCs4N6kI5JLQmX_14mcp_validators10validators8base_mcpNtB7_12MCPValidator26validate_initialize_params0Bb_
FNDA:0,_RNCNvMs0_NtNtCs4N6kI5JLQmX_14mcp_validators10validators8base_mcpNtB7_12MCPValidator26validate_prompt_get_params0Bb_
FNDA:0,_RNCNvMs0_NtNtCs4N6kI5JLQmX_14mcp_validators10validators8base_mcpNtB7_12MCPValidator29validate_resource_read_params0Bb_
FNDA:1,_RNvNtNtNtCsjgtEJkoBHnr_14mcp_validators10validators8base_mcp5testss_15test_is_request
FNDA:1,_RNvNtNtNtCsjgtEJkoBHnr_14mcp_validators10validators8base_mcp5testss_16test_is_response
FNDA:1,_RNvNtNtNtCsjgtEJkoBHnr_14mcp_validators10validators8base_mcp5testss_18test_valid_request
FNDA:1,_RNvNtNtNtCsjgtEJkoBHnr_14mcp_validators10validators8base_mcp5testss_19test_valid_response
FNDA:1,_RNvNtNtNtCsjgtEJkoBHnr_14mcp_validators10validators8base_mcp5testss_20test_is_notification
FNDA:1,_RNvNtNtNtCsjgtEJkoBHnr_14mcp_validators10validators8base_mcp5testss_28test_invalid_jsonrpc_version
FNDA:0,_RNvMs0_NtNtCsjgtEJkoBHnr_14mcp_validators10validators8base_mcpNtB5_12MCPValidator21validate_notification
FNDA:0,_RNvXs_NtNtCsjgtEJkoBHnr_14mcp_validators10validators8base_mcpNtB4_12MCPValidatorNtNtCslH02haMvknO_4core7default7Default7default
FNDA:0,_RNCNvMs0_NtNtCsjgtEJkoBHnr_14mcp_validators10validators8base_mcpNtB7_12MCPValidator25validate_tool_call_params0Bb_
FNDA:0,_RNCNvMs0_NtNtCsjgtEJkoBHnr_14mcp_validators10validators8base_mcpNtB7_12MCPValidator26validate_initialize_params0Bb_
FNDA:0,_RNCNvMs0_NtNtCsjgtEJkoBHnr_14mcp_validators10validators8base_mcpNtB7_12MCPValidator26validate_prompt_get_params0Bb_
FNDA:0,_RNCNvMs0_NtNtCsjgtEJkoBHnr_14mcp_validators10validators8base_mcpNtB7_12MCPValidator29validate_resource_read_params0Bb_
FNDA:0,_RNvMNtNtCsjgtEJkoBHnr_14mcp_validators10validators8base_mcpNtB2_16ValidationResult11add_warning
FNDA:14,_RNvMNtNtCsjgtEJkoBHnr_14mcp_validators10validators8base_mcpNtB2_16ValidationResult3new
FNDA:1,_RNvMNtNtCsjgtEJkoBHnr_14mcp_validators10validators8base_mcpNtB2_16ValidationResult9add_error
FNDA:1,_RNvMs0_NtNtCsjgtEJkoBHnr_14mcp_validators10validators8base_mcpNtB5_12MCPValidator10is_request
FNDA:1,_RNvMs0_NtNtCsjgtEJkoBHnr_14mcp_validators10validators8base_mcpNtB5_12MCPValidator11is_response
FNDA:1,_RNvMs0_NtNtCsjgtEJkoBHnr_14mcp_validators10validators8base_mcpNtB5_12MCPValidator15is_notification
FNDA:2,_RNvMs0_NtNtCsjgtEJkoBHnr_14mcp_validators10validators8base_mcpNtB5_12MCPValidator16validate_request
FNDA:1,_RNvMs0_NtNtCsjgtEJkoBHnr_14mcp_validators10validators8base_mcpNtB5_12MCPValidator17validate_response
FNDA:0,_RNvMs0_NtNtCsjgtEJkoBHnr_14mcp_validators10validators8base_mcpNtB5_12MCPValidator25validate_tool_call_params
FNDA:0,_RNvMs0_NtNtCsjgtEJkoBHnr_14mcp_validators10validators8base_mcpNtB5_12MCPValidator26validate_initialize_params
FNDA:0,_RNvMs0_NtNtCsjgtEJkoBHnr_14mcp_validators10validators8base_mcpNtB5_12MCPValidator26validate_prompt_get_params
FNDA:0,_RNvMs0_NtNtCsjgtEJkoBHnr_14mcp_validators10validators8base_mcpNtB5_12MCPValidator29validate_resource_read_params
FNDA:3,_RNvMs0_NtNtCsjgtEJkoBHnr_14mcp_validators10validators8base_mcpNtB5_12MCPValidator3new
FNF:25
FNH:15
DA:44,28
DA:45,28
DA:46,28
DA:47,28
DA:48,28
DA:49,28
DA:50,28
DA:51,28
DA:53,1
DA:54,1
DA:55,1
DA:56,1
DA:58,0
DA:59,0
DA:60,0
DA:72,0
DA:73,0
DA:74,0
DA:79,6
DA:80,6
DA:83,6
DA:84,6
DA:86,6
DA:88,6
DA:89,6
DA:91,6
DA:92,6
DA:93,6
DA:94,6
DA:95,6
DA:97,6
DA:98,6
DA:100,6
DA:101,6
DA:102,6
DA:103,6
DA:105,6
DA:107,6
DA:109,6
DA:111,6
DA:112,6
DA:113,6
DA:115,6
DA:116,6
DA:119,3
DA:120,3
DA:123,3
DA:126,3
DA:127,1
DA:128,1
DA:129,2
DA:132,2
DA:133,0
DA:134,2
DA:137,2
DA:138,0
DA:139,2
DA:142,2
DA:143,2
DA:144,0
DA:145,0
DA:146,0
DA:147,0
DA:148,0
DA:150,2
DA:151,0
DA:152,0
DA:153,0
DA:154,0
DA:155,0
DA:157,2
DA:158,0
DA:159,0
DA:160,0
DA:161,0
DA:162,0
DA:164,2
DA:165,0
DA:166,0
DA:167,0
DA:168,0
DA:169,0
DA:171,2
DA:174,2
DA:175,3
DA:178,2
DA:179,2
DA:182,2
DA:185,2
DA:186,0
DA:187,0
DA:188,2
DA:191,2
DA:192,0
DA:193,2
DA:196,2
DA:197,0
DA:198,0
DA:199,0
DA:200,0
DA:201,0
DA:202,0
DA:203,2
DA:206,2
DA:207,2
DA:210,1
DA:211,1
DA:212,1
DA:213,1
DA:214,1
DA:217,1
DA:220,1
DA:221,0
DA:222,0
DA:223,1
DA:226,1
DA:227,0
DA:228,1
DA:230,1
DA:231,1
DA:234,0
DA:235,0
DA:236,0
DA:237,0
DA:238,0
DA:239,0
DA:240,0
DA:243,0
DA:244,0
DA:245,0
DA:246,0
DA:247,0
DA:248,0
DA:249,0
DA:252,0
DA:253,0
DA:254,0
DA:255,0
DA:256,0
DA:257,0
DA:258,0
DA:261,0
DA:262,0
DA:263,0
DA:264,0
DA:265,0
DA:266,0
DA:267,0
DA:270,1
DA:271,1
DA:272,1
DA:273,1
DA:274,1
DA:275,1
DA:276,1
DA:277,1
DA:278,1
DA:281,1
DA:282,1
DA:283,1
DA:284,1
DA:287,1
DA:288,1
DA:289,1
DA:298,1
DA:299,1
DA:300,1
DA:301,1
DA:302,1
DA:303,1
DA:306,1
DA:307,1
DA:308,1
DA:309,1
DA:312,1
DA:313,1
DA:314,1
DA:315,1
DA:316,1
DA:317,1
DA:321,1
DA:322,1
DA:323,1
DA:326,1
DA:327,1
DA:328,1
DA:329,1
DA:330,1
DA:331,1
DA:334,1
DA:335,1
DA:336,1
DA:339,1
DA:340,1
DA:341,1
DA:342,1
DA:344,1
DA:345,1
DA:348,1
DA:349,1
DA:350,1
DA:351,1
DA:353,1
DA:354,1
DA:357,1
DA:358,1
DA:359,1
DA:361,1
DA:362,1
BRF:0
BRH:0
LF:213
LH:141
end_of_record
SF:/home/runner/work/Mcp-Plus-Plus/Mcp-Plus-Plus/tests-rs/src/validators/cid_artifacts.rs
FN:44,_RNvMNtNtCs4N6kI5JLQmX_14mcp_validators10validators13cid_artifactsNtB2_21CIDArtifactsValidator16validate_receipt
FN:21,_RNvMNtNtCs4N6kI5JLQmX_14mcp_validators10validators13cid_artifactsNtB2_21CIDArtifactsValidator17validate_envelope
FN:15,_RNvMNtNtCs4N6kI5JLQmX_14mcp_validators10validators13cid_artifactsNtB2_21CIDArtifactsValidator3new
FN:59,_RNvXs_NtNtCs4N6kI5JLQmX_14mcp_validators10validators13cid_artifactsNtB4_21CIDArtifactsValidatorNtNtCslH02haMvknO_4core7default7Default7default
FN:44,_RNvMNtNtCsjgtEJkoBHnr_14mcp_validators10validators13cid_artifactsNtB2_21CIDArtifactsValidator16validate_receipt
FN:21,_RNvMNtNtCsjgtEJkoBHnr_14mcp_validators10validators13cid_artifactsNtB2_21CIDArtifactsValidator17validate_envelope
FN:15,_RNvMNtNtCsjgtEJkoBHnr_14mcp_validators10validators13cid_artifactsNtB2_21CIDArtifactsValidator3new
FN:59,_RNvXs_NtNtCsjgtEJkoBHnr_14mcp_validators10validators13cid_artifactsNtB4_21CIDArtifactsValidatorNtNtCslH02haMvknO_4core7default7Default7default
FN:84,_RNvNtNtNtCsjgtEJkoBHnr_14mcp_validators10validators13cid_artifacts5testss_18test_valid_receipt
FN:70,_RNvNtNtNtCsjgtEJkoBHnr_14mcp_validators10validators13cid_artifacts5testss_19test_valid_envelope
FNDA:1,_RNvMNtNtCs4N6kI5JLQmX_14mcp_validators10validators13cid_artifactsNtB2_21CIDArtifactsValidator16validate_receipt
FNDA:1,_RNvMNtNtCs4N6kI5JLQmX_14mcp_validators10validators13cid_artifactsNtB2_21CIDArtifactsValidator17validate_envelope
FNDA:2,_RNvMNtNtCs4N6kI5JLQmX_14mcp_validators10validators13cid_artifactsNtB2_21CIDArtifactsValidator3new
FNDA:0,_RNvXs_NtNtCs4N6kI5JLQmX_14mcp_validators10validators13cid_artifactsNtB4_21CIDArtifactsValidatorNtNtCslH02haMvknO_4core7default7Default7default
FNDA:1,_RNvMNtNtCsjgtEJkoBHnr_14mcp_validators10validators13cid_artifactsNtB2_21CIDArtifactsValidator16validate_receipt
FNDA:1,_RNvMNtNtCsjgtEJkoBHnr_14mcp_validators10validators13cid_artifactsNtB2_21CIDArtifactsValidator17validate_envelope
FNDA:2,_RNvMNtNtCsjgtEJkoBHnr_14mcp_validators10validators13cid_artifactsNtB2_21CIDArtifactsValidator3new
FNDA:0,_RNvXs_NtNtCsjgtEJkoBHnr_14mcp_validators10validators13cid_artifactsNtB4_21CIDArtifactsValidatorNtNtCslH02haMvknO_4core7default7Default7default
FNDA:1,_RNvNtNtNtCsjgtEJkoBHnr_14mcp_validators10validators13cid_artifacts5testss_18test_valid_receipt
FNDA:1,_RNvNtNtNtCsjgtEJkoBHnr_14mcp_validators10validators13cid_artifacts5testss_19test_valid_envelope
FNF:6
FNH:5
DA:15,4
DA:16,4
DA:17,4
DA:21,2
DA:22,2
DA:23,2
DA:24,2
DA:25,2
DA:27,2
DA:29,2
DA:30,0
DA:31,0
DA:32,2
DA:35,2
DA:36,0
DA:37,2
DA:39,2
DA:40,2
DA:44,2
DA:45,2
DA:47,2
DA:49,2
DA:50,0
DA:51,0
DA:52,2
DA:54,2
DA:55,2
DA:59,0
DA:60,0
DA:61,0
DA:70,1
DA:71,1
DA:72,1
DA:73,1
DA:74,1
DA:75,1
DA:76,1
DA:79,1
DA:80,1
DA:81,1
DA:84,1
DA:85,1
DA:86,1
DA:87,1
DA:88,1
DA:89,1
DA:90,1
DA:93,1
DA:94,1
DA:95,1
BRF:0
BRH:0
LF:50
LH:42
end_of_record
SF:/home/runner/work/Mcp-Plus-Plus/Mcp-Plus-Plus/tests-rs/src/validators/event_dag.rs
FN:22,_RNvMNtNtCs4N6kI5JLQmX_14mcp_validators10validators9event_dagNtB2_17EventDAGValidator14validate_event
FN:42,_RNvMNtNtCs4N6kI5JLQmX_14mcp_validators10validators9event_dagNtB2_17EventDAGValidator16check_acyclicity
FN:16,_RNvMNtNtCs4N6kI5JLQmX_14mcp_validators10validators9event_dagNtB2_17EventDAGValidator3new
FN:65,_RNvMNtNtCs4N6kI5JLQmX_14mcp_validators10validators9event_dagNtB2_17EventDAGValidator9has_cycle
FN:93,_RNvXs_NtNtCs4N6kI5JLQmX_14mcp_validators10validators9event_dagNtB4_17EventDAGValidatorNtNtCslH02haMvknO_4core7default7Default7default
FN:22,_RNvMNtNtCsjgtEJkoBHnr_14mcp_validators10validators9event_dagNtB2_17EventDAGValidator14validate_event
FN:42,_RNvMNtNtCsjgtEJkoBHnr_14mcp_validators10validators9event_dagNtB2_17EventDAGValidator16check_acyclicity
FN:16,_RNvMNtNtCsjgtEJkoBHnr_14mcp_validators10validators9event_dagNtB2_17EventDAGValidator3new
FN:65,_RNvMNtNtCsjgtEJkoBHnr_14mcp_validators10validators9event_dagNtB2_17EventDAGValidator9has_cycle
FN:93,_RNvXs_NtNtCsjgtEJkoBHnr_14mcp_validators10validators9event_dagNtB4_17EventDAGValidatorNtNtCslH02haMvknO_4core7default7Default7default
FN:104,_RNvNtNtNtCsjgtEJkoBHnr_14mcp_validators10validators9event_dag5testss_16test_valid_event
FN:118,_RNvNtNtNtCsjgtEJkoBHnr_14mcp_validators10validators9event_dag5testss_21test_acyclicity_valid
FNDA:1,_RNvMNtNtCs4N6kI5JLQmX_14mcp_validators10validators9event_dagNtB2_17EventDAGValidator14validate_event
FNDA:0,_RNvMNtNtCs4N6kI5JLQmX_14mcp_validators10validators9event_dagNtB2_17EventDAGValidator16check_acyclicity
FNDA:1,_RNvMNtNtCs4N6kI5JLQmX_14mcp_validators10validators9event_dagNtB2_17EventDAGValidator3new
FNDA:0,_RNvMNtNtCs4N6kI5JLQmX_14mcp_validators10validators9event_dagNtB2_17EventDAGValidator9has_cycle
FNDA:0,_RNvXs_NtNtCs4N6kI5JLQmX_14mcp_validators10validators9event_dagNtB4_17EventDAGValidatorNtNtCslH02haMvknO_4core7default7Default7default
FNDA:1,_RNvMNtNtCsjgtEJkoBHnr_14mcp_validators10validators9event_dagNtB2_17EventDAGValidator14validate_event
FNDA:1,_RNvMNtNtCsjgtEJkoBHnr_14mcp_validators10validators9event_dagNtB2_17EventDAGValidator16check_acyclicity
FNDA:2,_RNvMNtNtCsjgtEJkoBHnr_14mcp_validators10validators9event_dagNtB2_17EventDAGValidator3new
FNDA:2,_RNvMNtNtCsjgtEJkoBHnr_14mcp_validators10validators9event_dagNtB2_17EventDAGValidator9has_cycle
FNDA:0,_RNvXs_NtNtCsjgtEJkoBHnr_14mcp_validators10validators9event_dagNtB4_17EventDAGValidatorNtNtCslH02haMvknO_4core7default7Default7default
FNDA:1,_RNvNtNtNtCsjgtEJkoBHnr_14mcp_validators10validators9event_dag5testss_16test_valid_event
FNDA:1,_RNvNtNtNtCsjgtEJkoBHnr_14mcp_validators10validators9event_dag5testss_21test_acyclicity_valid
FNF:7
FNH:6
DA:16,3
DA:17,3
DA:18,3
DA:22,2
DA:23,2
DA:25,2
DA:27,2
DA:28,0
DA:29,0
DA:30,2
DA:33,2
DA:34,0
DA:35,2
DA:37,2
DA:38,2
DA:42,1
DA:43,1
DA:46,2
DA:47,2
DA:48,2
DA:51,1
DA:52,1
DA:54,2
DA:55,2
DA:56,2
DA:57,0
DA:58,2
DA:59,0
DA:62,1
DA:63,1
DA:65,2
DA:66,2
DA:67,2
DA:68,2
DA:69,2
DA:70,2
DA:71,2
DA:72,2
DA:73,2
DA:75,2
DA:76,2
DA:77,1
DA:78,0
DA:79,0
DA:80,0
DA:81,1
DA:82,0
DA:83,1
DA:85,0
DA:87,2
DA:88,2
DA:89,2
DA:93,0
DA:94,0
DA:95,0
DA:104,1
DA:105,1
DA:106,1
DA:107,1
DA:108,1
DA:109,1
DA:110,1
DA:113,1
DA:114,1
DA:115,1
DA:118,1
DA:119,1
DA:120,1
DA:121,1
DA:122,1
DA:123,1
DA:124,1
DA:125,1
DA:126,1
DA:127,1
DA:128,1
DA:129,1
DA:130,1
DA:131,1
DA:132,1
DA:135,1
DA:136,1
BRF:0
BRH:0
LF:82
LH:69
end_of_record
SF:/home/runner/work/Mcp-Plus-Plus/Mcp-Plus-Plus/tests-rs/src/validators/mcp_idl.rs
FN:54,_RNvMNtNtCs4N6kI5JLQmX_14mcp_validators10validators7mcp_idlNtB2_15MCPIDLValidator19validate_cid_format
FN:27,_RNvMNtNtCs4N6kI5JLQmX_14mcp_validators10validators7mcp_idlNtB2_15MCPIDLValidator29validate_interface_descriptor
FN:21,_RNvMNtNtCs4N6kI5JLQmX_14mcp_validators10validators7mcp_idlNtB2_15MCPIDLValidator3new
FN:60,_RNvXs_NtNtCs4N6kI5JLQmX_14mcp_validators10validators7mcp_idlNtB4_15MCPIDLValidatorNtNtCslH02haMvknO_4core7default7Default7default
FN:54,_RNvMNtNtCsjgtEJkoBHnr_14mcp_validators10validators7mcp_idlNtB2_15MCPIDLValidator19validate_cid_format
FN:27,_RNvMNtNtCsjgtEJkoBHnr_14mcp_validators10validators7mcp_idlNtB2_15MCPIDLValidator29validate_interface_descriptor
FN:21,_RNvMNtNtCsjgtEJkoBHnr_14mcp_validators10validators7mcp_idlNtB2_15MCPIDLValidator3new
FN:60,_RNvXs_NtNtCsjgtEJkoBHnr_14mcp_validators10validators7mcp_idlNtB4_15MCPIDLValidatorNtNtCslH02haMvknO_4core7default7Default7default
FN:88,_RNvNtNtNtCsjgtEJkoBHnr_14mcp_validators10validators7mcp_idl5testss_24test_validate_cid_format
FN:71,_RNvNtNtNtCsjgtEJkoBHnr_14mcp_validators10validators7mcp_idl5testss_31test_valid_interface_descriptor
FNDA:0,_RNvMNtNtCs4N6kI5JLQmX_14mcp_validators10validators7mcp_idlNtB2_15MCPIDLValidator19validate_cid_format
FNDA:1,_RNvMNtNtCs4N6kI5JLQmX_14mcp_validators10validators7mcp_idlNtB2_15MCPIDLValidator29validate_interface_descriptor
FNDA:1,_RNvMNtNtCs4N6kI5JLQmX_14mcp_validators10validators7mcp_idlNtB2_15MCPIDLValidator3new
FNDA:0,_RNvXs_NtNtCs4N6kI5JLQmX_14mcp_validators10validators7mcp_idlNtB4_15MCPIDLValidatorNtNtCslH02haMvknO_4core7default7Default7default
FNDA:3,_RNvMNtNtCsjgtEJkoBHnr_14mcp_validators10validators7mcp_idlNtB2_15MCPIDLValidator19validate_cid_format
FNDA:1,_RNvMNtNtCsjgtEJkoBHnr_14mcp_validators10validators7mcp_idlNtB2_15MCPIDLValidator29validate_interface_descriptor
FNDA:2,_RNvMNtNtCsjgtEJkoBHnr_14mcp_validators10validators7mcp_idlNtB2_15MCPIDLValidator3new
FNDA:0,_RNvXs_NtNtCsjgtEJkoBHnr_14mcp_validators10validators7mcp_idlNtB4_15MCPIDLValidatorNtNtCslH02haMvknO_4core7default7Default7default
FNDA:1,_RNvNtNtNtCsjgtEJkoBHnr_14mcp_validators10validators7mcp_idl5testss_24test_validate_cid_format
FNDA:1,_RNvNtNtNtCsjgtEJkoBHnr_14mcp_validators10validators7mcp_idl5testss_31test_valid_interface_descriptor
FNF:6
FNH:5
DA:21,3
DA:22,3
DA:23,3
DA:27,2
DA:28,2
DA:29,2
DA:30,2
DA:31,2
DA:33,2
DA:35,2
DA:36,0
DA:37,0
DA:38,2
DA:41,2
DA:42,0
DA:43,2
DA:46,2
DA:47,0
DA:48,2
DA:50,2
DA:51,2
DA:54,3
DA:55,3
DA:56,3
DA:60,0
DA:61,0
DA:62,0
DA:71,1
DA:72,1
DA:73,1
DA:74,1
DA:75,1
DA:76,1
DA:77,1
DA:78,1
DA:80,1
DA:83,1
DA:84,1
DA:85,1
DA:88,1
DA:89,1
DA:90,1
DA:91,1
DA:92,1
DA:93,1
BRF:0
BRH:0
LF:45
LH:38
end_of_record
SF:/home/runner/work/Mcp-Plus-Plus/Mcp-Plus-Plus/tests-rs/src/validators/policy_evaluation.rs
FN:21,_RNvMNtNtCs4N6kI5JLQmX_14mcp_validators10validators17policy_evaluationNtB2_25PolicyEvaluationValidator15validate_policy
FN:41,_RNvMNtNtCs4N6kI5JLQmX_14mcp_validators10validators17policy_evaluationNtB2_25PolicyEvaluationValidator17validate_decision
FN:15,_RNvMNtNtCs4N6kI5JLQmX_14mcp_validators10validators17policy_evaluationNtB2_25PolicyEvaluationValidator3new
FN:69,_RNvXs_NtNtCs4N6kI5JLQmX_14mcp_validators10validators17policy_evaluationNtB4_25PolicyEvaluationValidatorNtNtCslH02haMvknO_4core7default7Default7default
FN:69,_RNvXs_NtNtCsjgtEJkoBHnr_14mcp_validators10validators17policy_evaluationNtB4_25PolicyEvaluationValidatorNtNtCslH02haMvknO_4core7default7Default7default
FN:80,_RNvNtNtNtCsjgtEJkoBHnr_14mcp_validators10validators17policy_evaluation5testss_17test_valid_policy
FN:96,_RNvNtNtNtCsjgtEJkoBHnr_14mcp_validators10validators17policy_evaluation5testss_19test_valid_decision
FN:107,_RNvNtNtNtCsjgtEJkoBHnr_14mcp_validators10validators17policy_evaluation5testss_30test_decision_with_obligations
FN:21,_RNvMNtNtCsjgtEJkoBHnr_14mcp_validators10validators17policy_evaluationNtB2_25PolicyEvaluationValidator15validate_policy
FN:41,_RNvMNtNtCsjgtEJkoBHnr_14mcp_validators10validators17policy_evaluationNtB2_25PolicyEvaluationValidator17validate_decision
FN:15,_RNvMNtNtCsjgtEJkoBHnr_14mcp_validators10validators17policy_evaluationNtB2_25PolicyEvaluationValidator3new
FNDA:1,_RNvMNtNtCs4N6kI5JLQmX_14mcp_validators10validators17policy_evaluationNtB2_25PolicyEvaluationValidator15validate_policy
FNDA:2,_RNvMNtNtCs4N6kI5JLQmX_14mcp_validators10validators17policy_evaluationNtB2_25PolicyEvaluationValidator17validate_decision
FNDA:3,_RNvMNtNtCs4N6kI5JLQmX_14mcp_validators10validators17policy_evaluationNtB2_25PolicyEvaluationValidator3new
FNDA:0,_RNvXs_NtNtCs4N6kI5JLQmX_14mcp_validators10validators17policy_evaluationNtB4_25PolicyEvaluationValidatorNtNtCslH02haMvknO_4core7default7Default7default
FNDA:0,_RNvXs_NtNtCsjgtEJkoBHnr_14mcp_validators10validators17policy_evaluationNtB4_25PolicyEvaluationValidatorNtNtCslH02haMvknO_4core7default7Default7default
FNDA:1,_RNvNtNtNtCsjgtEJkoBHnr_14mcp_validators10validators17policy_evaluation5testss_17test_valid_policy
FNDA:1,_RNvNtNtNtCsjgtEJkoBHnr_14mcp_validators10validators17policy_evaluation5testss_19test_valid_decision
FNDA:1,_RNvNtNtNtCsjgtEJkoBHnr_14mcp_validators10validators17policy_evaluation5testss_30test_decision_with_obligations
FNDA:1,_RNvMNtNtCsjgtEJkoBHnr_14mcp_validators10validators17policy_evaluationNtB2_25PolicyEvaluationValidator15validate_policy
FNDA:2,_RNvMNtNtCsjgtEJkoBHnr_14mcp_validators10validators17policy_evaluationNtB2_25PolicyEvaluationValidator17validate_decision
FNDA:3,_RNvMNtNtCsjgtEJkoBHnr_14mcp_validators10validators17policy_evaluationNtB2_25PolicyEvaluationValidator3new
FNF:7
FNH:6
DA:15,6
DA:16,6
DA:17,6
DA:21,2
DA:22,2
DA:24,2
DA:26,2
DA:27,0
DA:28,0
DA:29,2
DA:32,2
DA:33,0
DA:34,2
DA:36,2
DA:37,2
DA:41,4
DA:42,4
DA:43,4
DA:44,4
DA:45,4
DA:47,4
DA:49,4
DA:50,0
DA:51,0
DA:52,4
DA:55,4
DA:56,2
DA:57,0
DA:58,0
DA:59,0
DA:60,0
DA:61,2
DA:62,2
DA:64,4
DA:65,4
DA:69,0
DA:70,0
DA:71,0
DA:80,1
DA:81,1
DA:82,1
DA:83,1
DA:84,1
DA:85,1
DA:86,1
DA:87,1
DA:91,1
DA:92,1
DA:93,1
DA:96,1
DA:97,1
DA:98,1
DA:99,1
DA:102,1
DA:103,1
DA:104,1
DA:107,1
DA:108,1
DA:109,1
DA:110,1
DA:111,1
DA:112,1
DA:113,1
DA:117,1
DA:118,1
DA:119,1
BRF:0
BRH:0
LF:66
LH:54
end_of_record
SF:/home/runner/work/Mcp-Plus-Plus/Mcp-Plus-Plus/tests-rs/src/validators/transport.rs
FN:49,_RNvMNtNtCs4N6kI5JLQmX_14mcp_validators10validators9transportNtB2_18TransportValidator16validate_session
FN:21,_RNvMNtNtCs4N6kI5JLQmX_14mcp_validators10validators9transportNtB2_18TransportValidator26validate_transport_message
FN:15,_RNvMNtNtCs4N6kI5JLQmX_14mcp_validators10validators9transportNtB2_18TransportValidator3new
FN:67,_RNvXs_NtNtCs4N6kI5JLQmX_14mcp_validators10validators9transportNtB4_18TransportValidatorNtNtCslH02haMvknO_4core7default7Default7default
FN:91,_RNvNtNtNtCsjgtEJkoBHnr_14mcp_validators10validators9transport5testss_18test_valid_session
FN:78,_RNvNtNtNtCsjgtEJkoBHnr_14mcp_validators10validators9transport5testss_28test_valid_transport_message
FN:67,_RNvXs_NtNtCsjgtEJkoBHnr_14mcp_validators10validators9transportNtB4_18TransportValidatorNtNtCslH02haMvknO_4core7default7Default7default
FN:49,_RNvMNtNtCsjgtEJkoBHnr_14mcp_validators10validators9transportNtB2_18TransportValidator16validate_session
FN:21,_RNvMNtNtCsjgtEJkoBHnr_14mcp_validators10validators9transportNtB2_18TransportValidator26validate_transport_message
FN:15,_RNvMNtNtCsjgtEJkoBHnr_14mcp_validators10validators9transportNtB2_18TransportValidator3new
FNDA:1,_RNvMNtNtCs4N6kI5JLQmX_14mcp_validators10validators9transportNtB2_18TransportValidator16validate_session
FNDA:1,_RNvMNtNtCs4N6kI5JLQmX_14mcp_validators10validators9transportNtB2_18TransportValidator26validate_transport_message
FNDA:2,_RNvMNtNtCs4N6kI5JLQmX_14mcp_validators10validators9transportNtB2_18TransportValidator3new
FNDA:0,_RNvXs_NtNtCs4N6kI5JLQmX_14mcp_validators10validators9transportNtB4_18TransportValidatorNtNtCslH02haMvknO_4core7default7Default7default
FNDA:1,_RNvNtNtNtCsjgtEJkoBHnr_14mcp_validators10validators9transport5testss_18test_valid_session
FNDA:1,_RNvNtNtNtCsjgtEJkoBHnr_14mcp_validators10validators9transport5testss_28test_valid_transport_message
FNDA:0,_RNvXs_NtNtCsjgtEJkoBHnr_14mcp_validators10validators9transportNtB4_18TransportValidatorNtNtCslH02haMvknO_4core7default7Default7default
FNDA:1,_RNvMNtNtCsjgtEJkoBHnr_14mcp_validators10validators9transportNtB2_18TransportValidator16validate_session
FNDA:1,_RNvMNtNtCsjgtEJkoBHnr_14mcp_validators10validators9transportNtB2_18TransportValidator26validate_transport_message
FNDA:2,_RNvMNtNtCsjgtEJkoBHnr_14mcp_validators10validators9transportNtB2_18TransportValidator3new
FNF:6
FNH:5
DA:15,4
DA:16,4
DA:17,4
DA:21,2
DA:22,2
DA:23,2
DA:24,2
DA:25,2
DA:27,2
DA:29,2
DA:30,0
DA:31,0
DA:32,2
DA:35,2
DA:36,0
DA:37,2
DA:40,2
DA:41,0
DA:42,2
DA:44,2
DA:45,2
DA:49,2
DA:50,2
DA:51,2
DA:52,2
DA:53,2
DA:55,2
DA:57,2
DA:58,0
DA:59,0
DA:60,2
DA:62,2
DA:63,2
DA:67,0
DA:68,0
DA:69,0
DA:78,1
DA:79,1
DA:80,1
DA:81,1
DA:82,1
DA:83,1
DA:86,1
DA:87,1
DA:88,1
DA:91,1
DA:92,1
DA:93,1
DA:94,1
DA:95,1
DA:98,1
DA:99,1
DA:100,1
BRF:0
BRH:0
LF:53
LH:44
end_of_record
SF:/home/runner/work/Mcp-Plus-Plus/Mcp-Plus-Plus/tests-rs/src/validators/ucan_delegation.rs
FN:21,_RNvMNtNtCs4N6kI5JLQmX_14mcp_validators10validators15ucan_delegationNtB2_23UCANDelegationValidator19validate_ucan_token
FN:52,_RNvMNtNtCs4N6kI5JLQmX_14mcp_validators10validators15ucan_delegationNtB2_23UCANDelegationValidator25validate_delegation_chain
FN:15,_RNvMNtNtCs4N6kI5JLQmX_14mcp_validators10validators15ucan_delegationNtB2_23UCANDelegationValidator3new
FN:77,_RNvXs_NtNtCs4N6kI5JLQmX_14mcp_validators10validators15ucan_delegationNtB4_23UCANDelegationValidatorNtNtCslH02haMvknO_4core7default7Default7default
FN:77,_RNvXs_NtNtCsjgtEJkoBHnr_14mcp_validators10validators15ucan_delegationNtB4_23UCANDelegationValidatorNtNtCslH02haMvknO_4core7default7Default7default
FN:88,_RNvNtNtNtCsjgtEJkoBHnr_14mcp_validators10validators15ucan_delegation5testss_21test_valid_ucan_token
FN:105,_RNvNtNtNtCsjgtEJkoBHnr_14mcp_validators10validators15ucan_delegation5testss_27test_valid_delegation_chain
FN:21,_RNvMNtNtCsjgtEJkoBHnr_14mcp_validators10validators15ucan_delegationNtB2_23UCANDelegationValidator19validate_ucan_token
FN:52,_RNvMNtNtCsjgtEJkoBHnr_14mcp_validators10validators15ucan_delegationNtB2_23UCANDelegationValidator25validate_delegation_chain
FN:15,_RNvMNtNtCsjgtEJkoBHnr_14mcp_validators10validators15ucan_delegationNtB2_23UCANDelegationValidator3new
FNDA:1,_RNvMNtNtCs4N6kI5JLQmX_14mcp_validators10validators15ucan_delegationNtB2_23UCANDelegationValidator19validate_ucan_token
FNDA:1,_RNvMNtNtCs4N6kI5JLQmX_14mcp_validators10validators15ucan_delegationNtB2_23UCANDelegationValidator25validate_delegation_chain
FNDA:2,_RNvMNtNtCs4N6kI5JLQmX_14mcp_validators10validators15ucan_delegationNtB2_23UCANDelegationValidator3new
FNDA:0,_RNvXs_NtNtCs4N6kI5JLQmX_14mcp_validators10validators15ucan_delegationNtB4_23UCANDelegationValidatorNtNtCslH02haMvknO_4core7default7Default7default
FNDA:0,_RNvXs_NtNtCsjgtEJkoBHnr_14mcp_validators10validators15ucan_delegationNtB4_23UCANDelegationValidatorNtNtCslH02haMvknO_4core7default7Default7default
FNDA:1,_RNvNtNtNtCsjgtEJkoBHnr_14mcp_validators10validators15ucan_delegation5testss_21test_valid_ucan_token
FNDA:1,_RNvNtNtNtCsjgtEJkoBHnr_14mcp_validators10validators15ucan_delegation5testss_27test_valid_delegation_chain
FNDA:1,_RNvMNtNtCsjgtEJkoBHnr_14mcp_validators10validators15ucan_delegationNtB2_23UCANDelegationValidator19validate_ucan_token
FNDA:1,_RNvMNtNtCsjgtEJkoBHnr_14mcp_validators10validators15ucan_delegationNtB2_23UCANDelegationValidator25validate_delegation_chain
FNDA:2,_RNvMNtNtCsjgtEJkoBHnr_14mcp_validators10validators15ucan_delegationNtB2_23UCANDelegationValidator3new
FNF:6
FNH:5
DA:15,4
DA:16,4
DA:17,4
DA:21,2
DA:22,2
DA:23,2
DA:24,2
DA:25,2
DA:27,2
DA:29,2
DA:30,0
DA:31,0
DA:32,2
DA:35,2
DA:36,0
DA:37,2
DA:38,2
DA:39,0
DA:40,2
DA:43,2
DA:44,0
DA:45,2
DA:47,2
DA:48,2
DA:52,2
DA:53,2
DA:54,2
DA:55,2
DA:56,2
DA:58,2
DA:60,2
DA:61,0
DA:62,0
DA:63,2
DA:66,2
DA:67,2
DA:68,0
DA:69,2
DA:72,2
DA:73,2
DA:77,0
DA:78,0
DA:79,0
DA:88,1
DA:89,1
DA:90,1
DA:91,1
DA:92,1
DA:93,1
DA:94,1
DA:95,1
DA:97,1
DA:100,1
DA:101,1
DA:102,1
DA:105,1
DA:106,1
DA:107,1
DA:108,1
DA:109,1
DA:110,1
DA:111,1
DA:112,1
DA:113,1
DA:115,1
DA:119,1
DA:120,1
DA:121,1
BRF:0
BRH:0
LF:68
LH:57
end_of_record